
image/start_qi_all-s3c6410:     formato del fichero elf32-littlearm

Disassembly of section .text:

0c000000 <_start>:
 c000000:	ea000006 	b	c000020 <l_20>

0c000004 <l_4>:
 c000004:	eafffffe 	b	c000004 <l_4>

0c000008 <l_8>:
 c000008:	eafffffe 	b	c000008 <l_8>

0c00000c <l_c>:
 c00000c:	eafffffe 	b	c00000c <l_c>

0c000010 <l_10>:
 c000010:	eafffffe 	b	c000010 <l_10>

0c000014 <l_14>:
 c000014:	eafffffe 	b	c000014 <l_14>

0c000018 <l_18>:
 c000018:	eafffffe 	b	c000018 <l_18>

0c00001c <l_1c>:
 c00001c:	eafffffe 	b	c00001c <l_1c>

0c000020 <l_20>:
 c000020:	e3a00000 	mov	r0, #0	; 0x0
 c000024:	ee070f17 	mcr	15, 0, r0, cr7, cr7, {0}
 c000028:	ee110f10 	mrc	15, 0, r0, cr1, cr0, {0}
 c00002c:	e3800a01 	orr	r0, r0, #4096	; 0x1000
 c000030:	ee010f10 	mcr	15, 0, r0, cr1, cr0, {0}
 c000034:	e59f0320 	ldr	r0, [pc, #800]	; c00035c <_35c>
 c000038:	ee0f0f92 	mcr	15, 0, r0, cr15, cr2, {4}
 c00003c:	e59f031c 	ldr	r0, [pc, #796]	; c000360 <_360>
 c000040:	e3a01000 	mov	r1, #0	; 0x0
 c000044:	e5801000 	str	r1, [r0]
 c000048:	e59f0314 	ldr	r0, [pc, #788]	; c000364 <_364>
 c00004c:	e3e01000 	mvn	r1, #0	; 0x0
 c000050:	e5801000 	str	r1, [r0]
 c000054:	e59f030c 	ldr	r0, [pc, #780]	; c000368 <_368>
 c000058:	e3e01000 	mvn	r1, #0	; 0x0
 c00005c:	e5801000 	str	r1, [r0]
 c000060:	e59f0304 	ldr	r0, [pc, #772]	; c00036c <_36c>
 c000064:	e59f1304 	ldr	r1, [pc, #772]	; c000370 <_370>
 c000068:	e5801000 	str	r1, [r0]
 c00006c:	eb000059 	bl	c0001d8 <s_1d8>
 c000070:	e59f12fc 	ldr	r1, [pc, #764]	; c000374 <_374>
 c000074:	e59f22fc 	ldr	r2, [pc, #764]	; c000378 <_378>
 c000078:	e59f02fc 	ldr	r0, [pc, #764]	; c00037c <_37c>
 c00007c:	e5801000 	str	r1, [r0]
 c000080:	e5801004 	str	r1, [r0, #4]
 c000084:	e5802008 	str	r2, [r0, #8]
 c000088:	e59f02f0 	ldr	r0, [pc, #752]	; c000380 <_380>
 c00008c:	e5901000 	ldr	r1, [r0]
 c000090:	e3c11803 	bic	r1, r1, #196608	; 0x30000
 c000094:	e3c11cff 	bic	r1, r1, #65280	; 0xff00
 c000098:	e3c110ff 	bic	r1, r1, #255	; 0xff
 c00009c:	e59f22e0 	ldr	r2, [pc, #736]	; c000384 <_384>
 c0000a0:	e1811002 	orr	r1, r1, r2
 c0000a4:	e5801000 	str	r1, [r0]
 c0000a8:	e59f02d8 	ldr	r0, [pc, #728]	; c000388 <_388>
 c0000ac:	e59f12d8 	ldr	r1, [pc, #728]	; c00038c <_38c>
 c0000b0:	e5801000 	str	r1, [r0]
 c0000b4:	e59f02d4 	ldr	r0, [pc, #724]	; c000390 <_390>
 c0000b8:	e59f12d4 	ldr	r1, [pc, #724]	; c000394 <_394>
 c0000bc:	e5801000 	str	r1, [r0]
 c0000c0:	e59f02d0 	ldr	r0, [pc, #720]	; c000398 <_398>
 c0000c4:	e59f12d0 	ldr	r1, [pc, #720]	; c00039c <_39c>
 c0000c8:	e5801000 	str	r1, [r0]
 c0000cc:	e59f02cc 	ldr	r0, [pc, #716]	; c0003a0 <_3a0>
 c0000d0:	e59f12cc 	ldr	r1, [pc, #716]	; c0003a4 <_3a4>
 c0000d4:	e5801000 	str	r1, [r0]
 c0000d8:	e59f02c8 	ldr	r0, [pc, #712]	; c0003a8 <_3a8>
 c0000dc:	e5901000 	ldr	r1, [r0]
 c0000e0:	e3811007 	orr	r1, r1, #7	; 0x7
 c0000e4:	e5801000 	str	r1, [r0]
 c0000e8:	e59f02bc 	ldr	r0, [pc, #700]	; c0003ac <_3ac>
 c0000ec:	e3a01000 	mov	r1, #0	; 0x0
 c0000f0:	e3c11080 	bic	r1, r1, #128	; 0x80
 c0000f4:	e5801000 	str	r1, [r0]
 c0000f8:	eb000047 	bl	c00021c <s_21c>
 c0000fc:	e59f02ac 	ldr	r0, [pc, #684]	; c0003b0 <_3b0>
 c000100:	e5901000 	ldr	r1, [r0]
 c000104:	e2011048 	and	r1, r1, #72	; 0x48
 c000108:	e2012048 	and	r2, r1, #72	; 0x48
 c00010c:	e3520000 	cmp	r2, #0	; 0x0
 c000110:	0a000002 	beq	c000120 <l_120>
 c000114:	e59f0298 	ldr	r0, [pc, #664]	; c0003b4 <_3b4>
 c000118:	e5901000 	ldr	r1, [r0]
 c00011c:	e1a0f001 	mov	pc, r1

0c000120 <l_120>:
 c000120:	e59f0290 	ldr	r0, [pc, #656]	; c0003b8 <_MEM_CFG0>
 c000124:	e59f1290 	ldr	r1, [pc, #656]	; c0003bc <_3bc>
 c000128:	e5801000 	str	r1, [r0]
 c00012c:	e59f028c 	ldr	r0, [pc, #652]	; c0003c0 <_3c0>
 c000130:	e3a01001 	mov	r1, #1	; 0x1
 c000134:	e5801000 	str	r1, [r0]
 c000138:	e3a06004 	mov	r6, #4	; 0x4
 c00013c:	e59f7280 	ldr	r7, [pc, #640]	; c0003c4 <_3c4>
 c000140:	e3a04000 	mov	r4, #0	; 0x0
 c000144:	e3a03001 	mov	r3, #1	; 0x1

0c000148 <_copy_loop1>:
 c000148:	e3a02421 	mov	r2, #553648128	; 0x21000000
 c00014c:	e0822604 	add	r2, r2, r4, lsl #12
 c000150:	e3a08080 	mov	r8, #128	; 0x80
 c000154:	e0822303 	add	r2, r2, r3, lsl #6

0c000158 <_copy_loop2>:
 c000158:	e8921e00 	ldmia	r2, {r9, sl, fp, ip}
 c00015c:	e8a71e00 	stmia	r7!, {r9, sl, fp, ip}
 c000160:	e2588001 	subs	r8, r8, #1	; 0x1
 c000164:	1afffffb 	bne	c000158 <_copy_loop2>
 c000168:	e3530000 	cmp	r3, #0	; 0x0
 c00016c:	1a00000b 	bne	c0001a0 <l_1a0>
 c000170:	e5929000 	ldr	r9, [r2]
 c000174:	e1a09809 	mov	r9, r9, lsl #16
 c000178:	e1a09829 	mov	r9, r9, lsr #16
 c00017c:	e59f21f0 	ldr	r2, [pc, #496]	; c000374 <_374>
 c000180:	e1590002 	cmp	r9, r2
 c000184:	0a000005 	beq	c0001a0 <l_1a0>
 c000188:	e2866001 	add	r6, r6, #1	; 0x1
 c00018c:	e2477b02 	sub	r7, r7, #2048	; 0x800
 c000190:	e59f0220 	ldr	r0, [pc, #544]	; c0003b8 <_MEM_CFG0>
 c000194:	e3a01b01 	mov	r1, #1024	; 0x400
 c000198:	e5801050 	str	r1, [r0, #80]
 c00019c:	ea000005 	b	c0001b8 <l_1b8>

0c0001a0 <l_1a0>:
 c0001a0:	e59f0210 	ldr	r0, [pc, #528]	; c0003b8 <_MEM_CFG0>
 c0001a4:	e3a01b01 	mov	r1, #1024	; 0x400
 c0001a8:	e5801050 	str	r1, [r0, #80]
 c0001ac:	e2833001 	add	r3, r3, #1	; 0x1
 c0001b0:	e3530040 	cmp	r3, #64	; 0x40
 c0001b4:	baffffe3 	blt	c000148 <_copy_loop1>

0c0001b8 <l_1b8>:
 c0001b8:	e2844001 	add	r4, r4, #1	; 0x1
 c0001bc:	e3a03000 	mov	r3, #0	; 0x0
 c0001c0:	e1540006 	cmp	r4, r6
 c0001c4:	baffffdf 	blt	c000148 <_copy_loop1>
 c0001c8:	e59f01f4 	ldr	r0, [pc, #500]	; c0003c4 <_3c4>
 c0001cc:	ea00008d 	b	c000408 <_modstart>
 c0001d0:	ebffffff 	bl	c0001d4 <l_1d4>

0c0001d4 <l_1d4>:
 c0001d4:	eafffffe 	b	c0001d4 <l_1d4>

0c0001d8 <s_1d8>:
 c0001d8:	e59f01e8 	ldr	r0, [pc, #488]	; c0003c8 <_3c8>
 c0001dc:	e5901000 	ldr	r1, [r0]
 c0001e0:	e3811040 	orr	r1, r1, #64	; 0x40
 c0001e4:	e5801000 	str	r1, [r0]
 c0001e8:	e320f000 	nop	{0}
 c0001ec:	e320f000 	nop	{0}
 c0001f0:	e320f000 	nop	{0}
 c0001f4:	e320f000 	nop	{0}
 c0001f8:	e320f000 	nop	{0}
 c0001fc:	e5901000 	ldr	r1, [r0]
 c000200:	e3811080 	orr	r1, r1, #128	; 0x80
 c000204:	e5801000 	str	r1, [r0]

0c000208 <l_208>:
 c000208:	e5901000 	ldr	r1, [r0]
 c00020c:	e2011c0f 	and	r1, r1, #3840	; 0xf00
 c000210:	e3510c0f 	cmp	r1, #3840	; 0xf00
 c000214:	1afffffb 	bne	c000208 <l_208>
 c000218:	e1a0f00e 	mov	pc, lr

0c00021c <s_21c>:
 c00021c:	e59f01a8 	ldr	r0, [pc, #424]	; c0003cc <_3cc>
 c000220:	e3a01004 	mov	r1, #4	; 0x4
 c000224:	e5801004 	str	r1, [r0, #4]
 c000228:	e3a01f82 	mov	r1, #520	; 0x208
 c00022c:	e5801010 	str	r1, [r0, #16]
 c000230:	e3a01006 	mov	r1, #6	; 0x6
 c000234:	e5801014 	str	r1, [r0, #20]
 c000238:	e3a01001 	mov	r1, #1	; 0x1
 c00023c:	e5801018 	str	r1, [r0, #24]
 c000240:	e3a01002 	mov	r1, #2	; 0x2
 c000244:	e580101c 	str	r1, [r0, #28]
 c000248:	e3a01007 	mov	r1, #7	; 0x7
 c00024c:	e5801020 	str	r1, [r0, #32]
 c000250:	e3a01009 	mov	r1, #9	; 0x9
 c000254:	e5801024 	str	r1, [r0, #36]
 c000258:	e3a01003 	mov	r1, #3	; 0x3
 c00025c:	e3a02000 	mov	r2, #0	; 0x0
 c000260:	e1811002 	orr	r1, r1, r2
 c000264:	e5801028 	str	r1, [r0, #40]
 c000268:	e3a01011 	mov	r1, #17	; 0x11
 c00026c:	e3a02d07 	mov	r2, #448	; 0x1c0
 c000270:	e1811002 	orr	r1, r1, r2
 c000274:	e580102c 	str	r1, [r0, #44]
 c000278:	e3a01003 	mov	r1, #3	; 0x3
 c00027c:	e3a02000 	mov	r2, #0	; 0x0
 c000280:	e1811002 	orr	r1, r1, r2
 c000284:	e5801030 	str	r1, [r0, #48]
 c000288:	e3a01003 	mov	r1, #3	; 0x3
 c00028c:	e5801034 	str	r1, [r0, #52]
 c000290:	e3a01003 	mov	r1, #3	; 0x3
 c000294:	e5801038 	str	r1, [r0, #56]
 c000298:	e3a01002 	mov	r1, #2	; 0x2
 c00029c:	e580103c 	str	r1, [r0, #60]
 c0002a0:	e3a01002 	mov	r1, #2	; 0x2
 c0002a4:	e5801040 	str	r1, [r0, #64]
 c0002a8:	e3a01011 	mov	r1, #17	; 0x11
 c0002ac:	e5801044 	str	r1, [r0, #68]
 c0002b0:	e3a01011 	mov	r1, #17	; 0x11
 c0002b4:	e5801048 	str	r1, [r0, #72]
 c0002b8:	e59f1110 	ldr	r1, [pc, #272]	; c0003d0 <_3d0>
 c0002bc:	e580100c 	str	r1, [r0, #12]
 c0002c0:	e59f110c 	ldr	r1, [pc, #268]	; c0003d4 <_3d4>
 c0002c4:	e580104c 	str	r1, [r0, #76]
 c0002c8:	e59f1108 	ldr	r1, [pc, #264]	; c0003d8 <_3d8>
 c0002cc:	e5801200 	str	r1, [r0, #512]
 c0002d0:	e59f1104 	ldr	r1, [pc, #260]	; c0003dc <_3dc>
 c0002d4:	e5801204 	str	r1, [r0, #516]
 c0002d8:	e3a01000 	mov	r1, #0	; 0x0
 c0002dc:	e5801304 	str	r1, [r0, #772]
 c0002e0:	e3a01703 	mov	r1, #786432	; 0xc0000
 c0002e4:	e5801008 	str	r1, [r0, #8]
 c0002e8:	e3a01000 	mov	r1, #0	; 0x0
 c0002ec:	e5801008 	str	r1, [r0, #8]
 c0002f0:	e3a01701 	mov	r1, #262144	; 0x40000
 c0002f4:	e5801008 	str	r1, [r0, #8]
 c0002f8:	e5801008 	str	r1, [r0, #8]
 c0002fc:	e3a0180a 	mov	r1, #655360	; 0xa0000
 c000300:	e5801008 	str	r1, [r0, #8]
 c000304:	e59f10d4 	ldr	r1, [pc, #212]	; c0003e0 <_3e0>
 c000308:	e5801008 	str	r1, [r0, #8]
 c00030c:	e3a01707 	mov	r1, #1835008	; 0x1c0000
 c000310:	e5801008 	str	r1, [r0, #8]
 c000314:	e3a01601 	mov	r1, #1048576	; 0x100000
 c000318:	e5801008 	str	r1, [r0, #8]
 c00031c:	e3a01705 	mov	r1, #1310720	; 0x140000
 c000320:	e5801008 	str	r1, [r0, #8]
 c000324:	e5801008 	str	r1, [r0, #8]
 c000328:	e3a0181a 	mov	r1, #1703936	; 0x1a0000
 c00032c:	e5801008 	str	r1, [r0, #8]
 c000330:	e59f10ac 	ldr	r1, [pc, #172]	; c0003e4 <_3e4>
 c000334:	e5801008 	str	r1, [r0, #8]
 c000338:	e3a01000 	mov	r1, #0	; 0x0
 c00033c:	e5801004 	str	r1, [r0, #4]

0c000340 <l_340>:
 c000340:	e5901000 	ldr	r1, [r0]
 c000344:	e3a02003 	mov	r2, #3	; 0x3
 c000348:	e0011002 	and	r1, r1, r2
 c00034c:	e3510001 	cmp	r1, #1	; 0x1
 c000350:	1afffffa 	bne	c000340 <l_340>
 c000354:	e320f000 	nop	{0}
 c000358:	e1a0f00e 	mov	pc, lr

0c00035c <_35c>:
 c00035c:	70000013 	andvc	r0, r0, r3, lsl r0

0c000360 <_360>:
 c000360:	7e004000 	cdpvc	0, 0, cr4, cr0, cr0, {0}

0c000364 <_364>:
 c000364:	71200014 	teqvc	r0, r4, lsl r0

0c000368 <_368>:
 c000368:	71300014 	teqvc	r0, r4, lsl r0

0c00036c <_36c>:
 c00036c:	7f0081d4 	svcvc	0x000081d4

0c000370 <_370>:
 c000370:	55555555 	ldrplb	r5, [r5, #-1365]

0c000374 <_374>:
 c000374:	0000ffff 	streqd	pc, [r0], -pc

0c000378 <_378>:
 c000378:	00000e13 	andeq	r0, r0, r3, lsl lr

0c00037c <_37c>:
 c00037c:	7e00f000 	cdpvc	0, 0, cr15, cr0, cr0, {0}

0c000380 <_380>:
 c000380:	7e00f020 	cdpvc	0, 0, cr15, cr0, cr0, {1}

0c000384 <_384>:
 c000384:	00007501 	andeq	r7, r0, r1, lsl #10

0c000388 <_388>:
 c000388:	7e00f00c 	cdpvc	0, 0, cr15, cr0, cr12, {0}

0c00038c <_38c>:
 c00038c:	81900301 	orrhis	r0, r0, r1, lsl #6

0c000390 <_390>:
 c000390:	7e00f010 	mcrvc	0, 0, pc, cr0, cr0, {0}

0c000394 <_394>:
 c000394:	81840303 	orrhi	r0, r4, r3, lsl #6

0c000398 <_398>:
 c000398:	7e00f018 	mcrvc	0, 0, pc, cr0, cr8, {0}

0c00039c <_39c>:
 c00039c:	0000c49c 	muleq	r0, ip, r4

0c0003a0 <_3a0>:
 c0003a0:	7e00f014 	mcrvc	0, 0, pc, cr0, cr4, {0}

0c0003a4 <_3a4>:
 c0003a4:	80200103 	eorhi	r0, r0, r3, lsl #2

0c0003a8 <_3a8>:
 c0003a8:	7e00f01c 	mcrvc	0, 0, pc, cr0, cr12, {0}

0c0003ac <_3ac>:
 c0003ac:	7e00f120 	mvfvcsp	f7, f0

0c0003b0 <_3b0>:
 c0003b0:	7e00f904 	cdpvc	9, 0, cr15, cr0, cr4, {0}

0c0003b4 <_3b4>:
 c0003b4:	7e00fa08 	fmacsvc	s30, s0, s16

0c0003b8 <_MEM_CFG0>:
 c0003b8:	70100000 	andvcs	r0, r0, r0

0c0003bc <_3bc>:
 c0003bc:	000040e0 	andeq	r4, r0, r0, ror #1

0c0003c0 <_3c0>:
 c0003c0:	70100140 	andvcs	r0, r0, r0, asr #2

0c0003c4 <_3c4>:
 c0003c4:	51400000 	cmppl	r0, r0

0c0003c8 <_3c8>:
 c0003c8:	7e00f900 	cdpvc	9, 0, cr15, cr0, cr0, {0}

0c0003cc <_3cc>:
 c0003cc:	7e001000 	cdpvc	0, 0, cr1, cr0, cr0, {0}

0c0003d0 <_3d0>:
 c0003d0:	40224019 	eormi	r4, r2, r9, lsl r0

0c0003d4 <_3d4>:
 c0003d4:	00000b41 	andeq	r0, r0, r1, asr #22

0c0003d8 <_3d8>:
 c0003d8:	000150f8 	streqd	r5, [r1], -r8

0c0003dc <_3dc>:
 c0003dc:	000158f8 	streqd	r5, [r1], -r8

0c0003e0 <_3e0>:
 c0003e0:	00080034 	andeq	r0, r8, r4, lsr r0

0c0003e4 <_3e4>:
 c0003e4:	00180034 	andeqs	r0, r8, r4, lsr r0

0c0003e8 <is_jtag>:
 c0003e8:	00000000 	andeq	r0, r0, r0

0c0003ec <_bss_start>:
 c0003ec:	53800000 	orrpl	r0, r0, #0	; 0x0

0c0003f0 <_bss_end>:
 c0003f0:	53819030 	orrpl	r9, r1, #48	; 0x30

0c0003f4 <_TEXT_BASE>:
 c0003f4:	53000000 	movwpl	r0, #0	; 0x0

0c0003f8 <_old_new_base>:
 c0003f8:	51447800 	cmppl	r4, r0, lsl #16

0c0003fc <_keypad_base>:
 c0003fc:	7e00a000 	cdpvc	0, 0, cr10, cr0, cr0, {0}

0c000400 <_gpio_base>:
 c000400:	7f008000 	svcvc	0x00008000

0c000404 <_const_fff>:
 c000404:	00000fff 	streqd	r0, [r0], -pc

0c000408 <_modstart>:
 c000408:	e51f0010 	ldr	r0, [pc, #-16]	; c000400 <_gpio_base>
 c00040c:	e5901810 	ldr	r1, [r0, #2064]
 c000410:	e1a01621 	mov	r1, r1, lsr #12
 c000414:	e1a01621 	mov	r1, r1, lsr #12
 c000418:	e3811c03 	orr	r1, r1, #768	; 0x300
 c00041c:	e3811033 	orr	r1, r1, #51	; 0x33
 c000420:	e5801810 	str	r1, [r0, #2064]
 c000424:	e5901804 	ldr	r1, [r0, #2052]
 c000428:	e1a01621 	mov	r1, r1, lsr #12
 c00042c:	e1a01601 	mov	r1, r1, lsl #12
 c000430:	e3811c03 	orr	r1, r1, #768	; 0x300
 c000434:	e3811033 	orr	r1, r1, #51	; 0x33
 c000438:	e5801804 	str	r1, [r0, #2052]

0c00043c <_setupGPIO_L>:
 c00043c:	e51f1044 	ldr	r1, [pc, #-68]	; c000400 <_gpio_base>
 c000440:	e591081c 	ldr	r0, [r1, #2076]
 c000444:	e3c00003 	bic	r0, r0, #3	; 0x3
 c000448:	e3800002 	orr	r0, r0, #2	; 0x2
 c00044c:	e581081c 	str	r0, [r1, #2076]
 c000450:	e5910818 	ldr	r0, [r1, #2072]
 c000454:	e3c00006 	bic	r0, r0, #6	; 0x6
 c000458:	e5810818 	str	r0, [r1, #2072]
 c00045c:	e5910810 	ldr	r0, [r1, #2064]
 c000460:	e51f2064 	ldr	r2, [pc, #-100]	; c000404 <_const_fff>
 c000464:	e1c00002 	bic	r0, r0, r2
 c000468:	e3800e11 	orr	r0, r0, #272	; 0x110
 c00046c:	e5810810 	str	r0, [r1, #2064]

0c000470 <_key_scan>:
 c000470:	e51f007c 	ldr	r0, [pc, #-124]	; c0003fc <_keypad_base>
 c000474:	e590000c 	ldr	r0, [r0, #12]
 c000478:	e2000001 	and	r0, r0, #1	; 0x1
 c00047c:	e3500000 	cmp	r0, #0	; 0x0
 c000480:	0a000001 	beq	c00048c <_init_stack>

0c000484 <_continue_ssboot>:
 c000484:	e51f00c8 	ldr	r0, [pc, #-200]	; c0003c4 <_3c4>
 c000488:	e1a0f000 	mov	pc, r0

0c00048c <_init_stack>:
 c00048c:	e51f00a0 	ldr	r0, [pc, #-160]	; c0003f4 <_TEXT_BASE>
 c000490:	e2400080 	sub	r0, r0, #128	; 0x80
 c000494:	e240d00c 	sub	sp, r0, #12	; 0xc

0c000498 <_clear_bss>:
 c000498:	e51f00b4 	ldr	r0, [pc, #-180]	; c0003ec <_bss_start>
 c00049c:	e51f10b4 	ldr	r1, [pc, #-180]	; c0003f0 <_bss_end>
 c0004a0:	e3a02000 	mov	r2, #0	; 0x0

0c0004a4 <_clbss_l>:
 c0004a4:	e5802000 	str	r2, [r0]
 c0004a8:	e2800004 	add	r0, r0, #4	; 0x4
 c0004ac:	e1500001 	cmp	r0, r1
 c0004b0:	dafffffb 	ble	c0004a4 <_clbss_l>

0c0004b4 <_copy_to_text_base>:
 c0004b4:	e51f00c8 	ldr	r0, [pc, #-200]	; c0003f4 <_TEXT_BASE>
 c0004b8:	e51f10c8 	ldr	r1, [pc, #-200]	; c0003f8 <_old_new_base>
 c0004bc:	e3a02801 	mov	r2, #65536	; 0x10000
 c0004c0:	e3a03000 	mov	r3, #0	; 0x0
 c0004c4:	e1a0c122 	mov	ip, r2, lsr #2

0c0004c8 <_copy_to_text_base_loop>:
 c0004c8:	e153000c 	cmp	r3, ip
 c0004cc:	2a000003 	bcs	c0004e0 <_steppingstone_done>
 c0004d0:	e7912103 	ldr	r2, [r1, r3, lsl #2]
 c0004d4:	e7802103 	str	r2, [r0, r3, lsl #2]
 c0004d8:	e2833001 	add	r3, r3, #1	; 0x1
 c0004dc:	eafffff9 	b	c0004c8 <_copy_to_text_base_loop>

0c0004e0 <_steppingstone_done>:
 c0004e0:	e51ff0f4 	ldr	pc, [pc, #-244]	; c0003f4 <_TEXT_BASE>
Disassembly of section .oldboot:

51400000 <.oldboot>:
51400000:	ea000006 	b	51400020 <__oldboot_ram_start+0x20>
51400004:	eafffffe 	b	51400004 <__oldboot_ram_start+0x4>
51400008:	eafffffe 	b	51400008 <__oldboot_ram_start+0x8>
5140000c:	eafffffe 	b	5140000c <__oldboot_ram_start+0xc>
51400010:	eafffffe 	b	51400010 <__oldboot_ram_start+0x10>
51400014:	eafffffe 	b	51400014 <__oldboot_ram_start+0x14>
51400018:	eafffffe 	b	51400018 <__oldboot_ram_start+0x18>
5140001c:	eafffffe 	b	5140001c <__oldboot_ram_start+0x1c>
51400020:	ee110f50 	mrc	15, 0, r0, cr1, cr0, {2}
51400024:	e380060f 	orr	r0, r0, #15728640	; 0xf00000
51400028:	ee010f50 	mcr	15, 0, r0, cr1, cr0, {2}
5140002c:	eef81a10 	fmrx	r1, fpexc
51400030:	e3811101 	orr	r1, r1, #1073741824	; 0x40000000
51400034:	eee81a10 	fmxr	fpexc, r1
51400038:	e3a00403 	mov	r0, #50331648	; 0x3000000
5140003c:	eee10a10 	fmxr	fpscr, r0
51400040:	e3a00000 	mov	r0, #0	; 0x0
51400044:	ee090f12 	mcr	15, 0, r0, cr9, cr2, {0}
51400048:	e3a00901 	mov	r0, #16384	; 0x4000
5140004c:	e3800001 	orr	r0, r0, #1	; 0x1
51400050:	ee090f11 	mcr	15, 0, r0, cr9, cr1, {0}
51400054:	e3a00001 	mov	r0, #1	; 0x1
51400058:	ee090f12 	mcr	15, 0, r0, cr9, cr2, {0}
5140005c:	e3a00a06 	mov	r0, #24576	; 0x6000
51400060:	e3800001 	orr	r0, r0, #1	; 0x1
51400064:	ee090f11 	mcr	15, 0, r0, cr9, cr1, {0}
51400068:	e3a00000 	mov	r0, #0	; 0x0
5140006c:	ee090f12 	mcr	15, 0, r0, cr9, cr2, {0}
51400070:	e3a00000 	mov	r0, #0	; 0x0
51400074:	e3800001 	orr	r0, r0, #1	; 0x1
51400078:	ee090f31 	mcr	15, 0, r0, cr9, cr1, {1}
5140007c:	e3a00001 	mov	r0, #1	; 0x1
51400080:	ee090f12 	mcr	15, 0, r0, cr9, cr2, {0}
51400084:	e3a00a02 	mov	r0, #8192	; 0x2000
51400088:	e3800001 	orr	r0, r0, #1	; 0x1
5140008c:	ee090f31 	mcr	15, 0, r0, cr9, cr1, {1}
51400090:	e59f0084 	ldr	r0, [pc, #132]	; 5140011c <__oldboot_ram_start+0x11c>
51400094:	e3e01000 	mvn	r1, #0	; 0x0
51400098:	e5801000 	str	r1, [r0]
5140009c:	e59f007c 	ldr	r0, [pc, #124]	; 51400120 <__oldboot_ram_start+0x120>
514000a0:	e3e01000 	mvn	r1, #0	; 0x0
514000a4:	e5801000 	str	r1, [r0]
514000a8:	e59f0074 	ldr	r0, [pc, #116]	; 51400124 <__oldboot_ram_start+0x124>
514000ac:	e3a01000 	mov	r1, #0	; 0x0
514000b0:	e5801000 	str	r1, [r0]
514000b4:	e3a00000 	mov	r0, #0	; 0x0
514000b8:	ee080f17 	mcr	15, 0, r0, cr8, cr7, {0}
514000bc:	ee070f15 	mcr	15, 0, r0, cr7, cr5, {0}
514000c0:	ee070f16 	mcr	15, 0, r0, cr7, cr6, {0}
514000c4:	eb00ceba 	bl	51433bb4 <__oldboot_ram_start+0x33bb4>
514000c8:	eb00cea5 	bl	51433b64 <__oldboot_ram_start+0x33b64>
514000cc:	eb00cea8 	bl	51433b74 <__oldboot_ram_start+0x33b74>
514000d0:	e10f0000 	mrs	r0, CPSR
514000d4:	e3c0001f 	bic	r0, r0, #31	; 0x1f
514000d8:	e38010d2 	orr	r1, r0, #210	; 0xd2
514000dc:	e12ff001 	msr	CPSR_fsxc, r1
514000e0:	e59fd040 	ldr	sp, [pc, #64]	; 51400128 <__oldboot_ram_start+0x128>
514000e4:	e3c000df 	bic	r0, r0, #223	; 0xdf
514000e8:	e3801013 	orr	r1, r0, #19	; 0x13
514000ec:	e12ff001 	msr	CPSR_fsxc, r1
514000f0:	e59fd034 	ldr	sp, [pc, #52]	; 5140012c <__oldboot_ram_start+0x12c>
514000f4:	e3a08050 	mov	r8, #80	; 0x50
514000f8:	e59f9030 	ldr	r9, [pc, #48]	; 51400130 <__oldboot_ram_start+0x130>
514000fc:	e8b900ff 	ldmia	r9!, {r0, r1, r2, r3, r4, r5, r6, r7}
51400100:	e8a800ff 	stmia	r8!, {r0, r1, r2, r3, r4, r5, r6, r7}
51400104:	e3a08000 	mov	r8, #0	; 0x0
51400108:	e59f9024 	ldr	r9, [pc, #36]	; 51400134 <__oldboot_ram_start+0x134>
5140010c:	e8b900ff 	ldmia	r9!, {r0, r1, r2, r3, r4, r5, r6, r7}
51400110:	e8a800ff 	stmia	r8!, {r0, r1, r2, r3, r4, r5, r6, r7}
51400114:	ea000b98 	b	51402f7c <__oldboot_ram_start+0x2f7c>
51400118:	eafffffe 	b	51400118 <__oldboot_ram_start+0x118>
5140011c:	71200014 	teqvc	r0, r4, lsl r0
51400120:	71300014 	teqvc	r0, r4, lsl r0
51400124:	7e004000 	cdpvc	0, 0, cr4, cr0, cr0, {0}
51400128:	518fff00 	orrpl	pc, pc, r0, lsl #30
5140012c:	518ff900 	orrpl	pc, pc, r0, lsl #18
51400130:	514400d4 	ldrpld	r0, [r4, #-4]
51400134:	514400b4 	strplh	r0, [r4, #-4]
51400138:	e3a02000 	mov	r2, #0	; 0x0
5140013c:	ea000004 	b	51400154 <__oldboot_ram_start+0x154>
51400140:	e3a01000 	mov	r1, #0	; 0x0
51400144:	e2811001 	add	r1, r1, #1	; 0x1
51400148:	e3510ffa 	cmp	r1, #1000	; 0x3e8
5140014c:	bafffffc 	blt	51400144 <__oldboot_ram_start+0x144>
51400150:	e2822001 	add	r2, r2, #1	; 0x1
51400154:	e1520000 	cmp	r2, r0
51400158:	bafffff8 	blt	51400140 <__oldboot_ram_start+0x140>
5140015c:	e12fff1e 	bx	lr
51400160:	e59f12f8 	ldr	r1, [pc, #760]	; 51400460 <__oldboot_ram_start+0x460>
51400164:	e3a00001 	mov	r0, #1	; 0x1
51400168:	e5810008 	str	r0, [r1, #8]
5140016c:	e12fff1e 	bx	lr
51400170:	e3a0131f 	mov	r1, #2080374784	; 0x7c000000
51400174:	e5910804 	ldr	r0, [r1, #2052]
51400178:	e3c00002 	bic	r0, r0, #2	; 0x2
5140017c:	e5810804 	str	r0, [r1, #2052]
51400180:	e12fff1e 	bx	lr
51400184:	e3a0131f 	mov	r1, #2080374784	; 0x7c000000
51400188:	e5911014 	ldr	r1, [r1, #20]
5140018c:	e2011001 	and	r1, r1, #1	; 0x1
51400190:	e5c01000 	strb	r1, [r0]
51400194:	e12fff1e 	bx	lr
51400198:	e92d4038 	stmdb	sp!, {r3, r4, r5, lr}
5140019c:	e59f12c0 	ldr	r1, [pc, #704]	; 51400464 <__oldboot_ram_start+0x464>
514001a0:	e5910900 	ldr	r0, [r1, #2304]
514001a4:	e3800801 	orr	r0, r0, #65536	; 0x10000
514001a8:	e5810900 	str	r0, [r1, #2304]
514001ac:	e59f32b4 	ldr	r3, [pc, #692]	; 51400468 <__oldboot_ram_start+0x468>
514001b0:	e3a04000 	mov	r4, #0	; 0x0
514001b4:	e5834000 	str	r4, [r3]
514001b8:	e5834004 	str	r4, [r3, #4]
514001bc:	e3a05001 	mov	r5, #1	; 0x1
514001c0:	e5835008 	str	r5, [r3, #8]
514001c4:	e3a000c8 	mov	r0, #200	; 0xc8
514001c8:	ebffffda 	bl	51400138 <__oldboot_ram_start+0x138>
514001cc:	e5834008 	str	r4, [r3, #8]
514001d0:	e3a00064 	mov	r0, #100	; 0x64
514001d4:	ebffffd7 	bl	51400138 <__oldboot_ram_start+0x138>
514001d8:	e3a0331f 	mov	r3, #2080374784	; 0x7c000000
514001dc:	e5835010 	str	r5, [r3, #16]
514001e0:	e5930010 	ldr	r0, [r3, #16]
514001e4:	e3100102 	tst	r0, #-2147483648	; 0x80000000
514001e8:	0afffffc 	beq	514001e0 <__oldboot_ram_start+0x1e0>
514001ec:	e3a00064 	mov	r0, #100	; 0x64
514001f0:	ebffffd0 	bl	51400138 <__oldboot_ram_start+0x138>
514001f4:	e5835008 	str	r5, [r3, #8]
514001f8:	e59f4260 	ldr	r4, [pc, #608]	; 51400460 <__oldboot_ram_start+0x460>
514001fc:	e5940008 	ldr	r0, [r4, #8]
51400200:	e3500000 	cmp	r0, #0	; 0x0
51400204:	0a000002 	beq	51400214 <__oldboot_ram_start+0x214>
51400208:	e59f025c 	ldr	r0, [pc, #604]	; 5140046c <__oldboot_ram_start+0x46c>
5140020c:	e583000c 	str	r0, [r3, #12]
51400210:	ea000001 	b	5140021c <__oldboot_ram_start+0x21c>
51400214:	e59f0254 	ldr	r0, [pc, #596]	; 51400470 <__oldboot_ram_start+0x470>
51400218:	e583000c 	str	r0, [r3, #12]
5140021c:	e1a0000d 	mov	r0, sp
51400220:	ebffffd7 	bl	51400184 <__oldboot_ram_start+0x184>
51400224:	e5dd0000 	ldrb	r0, [sp]
51400228:	e3500000 	cmp	r0, #0	; 0x0
5140022c:	1a000013 	bne	51400280 <__oldboot_ram_start+0x280>
51400230:	e59f023c 	ldr	r0, [pc, #572]	; 51400474 <__oldboot_ram_start+0x474>
51400234:	ebffffbf 	bl	51400138 <__oldboot_ram_start+0x138>
51400238:	ebffffcc 	bl	51400170 <__oldboot_ram_start+0x170>
5140023c:	e5940008 	ldr	r0, [r4, #8]
51400240:	e3500000 	cmp	r0, #0	; 0x0
51400244:	0a000002 	beq	51400254 <__oldboot_ram_start+0x254>
51400248:	e59f0228 	ldr	r0, [pc, #552]	; 51400478 <__oldboot_ram_start+0x478>
5140024c:	e5830800 	str	r0, [r3, #2048]
51400250:	ea000001 	b	5140025c <__oldboot_ram_start+0x25c>
51400254:	e3a00701 	mov	r0, #262144	; 0x40000
51400258:	e5830800 	str	r0, [r3, #2048]
5140025c:	e5835008 	str	r5, [r3, #8]
51400260:	e59f1218 	ldr	r1, [pc, #536]	; 51400480 <__oldboot_ram_start+0x480>
51400264:	e59f0210 	ldr	r0, [pc, #528]	; 5140047c <__oldboot_ram_start+0x47c>
51400268:	e581000c 	str	r0, [r1, #12]
5140026c:	e5830018 	str	r0, [r3, #24]
51400270:	e5930e00 	ldr	r0, [r3, #3584]
51400274:	e3c00001 	bic	r0, r0, #1	; 0x1
51400278:	e583081c 	str	r0, [r3, #2076]
5140027c:	e8bd8038 	ldmia	sp!, {r3, r4, r5, pc}
51400280:	e28f0f7f 	add	r0, pc, #508	; 0x1fc
51400284:	eb000cb6 	bl	51403564 <__oldboot_ram_start+0x3564>
51400288:	eafffffb 	b	5140027c <__oldboot_ram_start+0x27c>
5140028c:	e92d4010 	stmdb	sp!, {r4, lr}
51400290:	e1a04000 	mov	r4, r0
51400294:	ebffffbf 	bl	51400198 <__oldboot_ram_start+0x198>
51400298:	e59f01e0 	ldr	r0, [pc, #480]	; 51400480 <__oldboot_ram_start+0x480>
5140029c:	e3a01000 	mov	r1, #0	; 0x0
514002a0:	e1c010b4 	strh	r1, [r0, #4]
514002a4:	e3a01001 	mov	r1, #1	; 0x1
514002a8:	e1c010b2 	strh	r1, [r0, #2]
514002ac:	e59f01ac 	ldr	r0, [pc, #428]	; 51400460 <__oldboot_ram_start+0x460>
514002b0:	e5c04001 	strb	r4, [r0, #1]
514002b4:	e3540000 	cmp	r4, #0	; 0x0
514002b8:	e3a01012 	mov	r1, #18	; 0x12
514002bc:	e3a0202c 	mov	r2, #44	; 0x2c
514002c0:	e3a03016 	mov	r3, #22	; 0x16
514002c4:	e3a0c004 	mov	ip, #4	; 0x4
514002c8:	1a000014 	bne	51400320 <__oldboot_ram_start+0x320>
514002cc:	e280e020 	add	lr, r0, #32	; 0x20
514002d0:	e580e050 	str	lr, [r0, #80]
514002d4:	e28ee0a0 	add	lr, lr, #160	; 0xa0
514002d8:	e580e054 	str	lr, [r0, #84]
514002dc:	e28ee020 	add	lr, lr, #32	; 0x20
514002e0:	e580e058 	str	lr, [r0, #88]
514002e4:	e28ee040 	add	lr, lr, #64	; 0x40
514002e8:	e580e05c 	str	lr, [r0, #92]
514002ec:	e28ee020 	add	lr, lr, #32	; 0x20
514002f0:	e580e060 	str	lr, [r0, #96]
514002f4:	e28ee035 	add	lr, lr, #53	; 0x35
514002f8:	e580e064 	str	lr, [r0, #100]
514002fc:	e28ee007 	add	lr, lr, #7	; 0x7
51400300:	e580e068 	str	lr, [r0, #104]
51400304:	e580c06c 	str	ip, [r0, #108]
51400308:	e5803070 	str	r3, [r0, #112]
5140030c:	e5802074 	str	r2, [r0, #116]
51400310:	e5801078 	str	r1, [r0, #120]
51400314:	e3a01043 	mov	r1, #67	; 0x43
51400318:	e580107c 	str	r1, [r0, #124]
5140031c:	ea000015 	b	51400378 <__oldboot_ram_start+0x378>
51400320:	e3540001 	cmp	r4, #1	; 0x1
51400324:	1a000013 	bne	51400378 <__oldboot_ram_start+0x378>
51400328:	e59fe174 	ldr	lr, [pc, #372]	; 514004a4 <__oldboot_ram_start+0x4a4>
5140032c:	e580e050 	str	lr, [r0, #80]
51400330:	e28eee16 	add	lr, lr, #352	; 0x160
51400334:	e580e054 	str	lr, [r0, #84]
51400338:	e28ee020 	add	lr, lr, #32	; 0x20
5140033c:	e580e058 	str	lr, [r0, #88]
51400340:	e28ee040 	add	lr, lr, #64	; 0x40
51400344:	e580e05c 	str	lr, [r0, #92]
51400348:	e28ee020 	add	lr, lr, #32	; 0x20
5140034c:	e580e060 	str	lr, [r0, #96]
51400350:	e28ee012 	add	lr, lr, #18	; 0x12
51400354:	e580e064 	str	lr, [r0, #100]
51400358:	e28ee007 	add	lr, lr, #7	; 0x7
5140035c:	e580e068 	str	lr, [r0, #104]
51400360:	e580c06c 	str	ip, [r0, #108]
51400364:	e5803070 	str	r3, [r0, #112]
51400368:	e5802074 	str	r2, [r0, #116]
5140036c:	e5801078 	str	r1, [r0, #120]
51400370:	e3a01020 	mov	r1, #32	; 0x20
51400374:	e580107c 	str	r1, [r0, #124]
51400378:	e3a00001 	mov	r0, #1	; 0x1
5140037c:	e8bd8010 	ldmia	sp!, {r4, pc}
51400380:	e92d4030 	stmdb	sp!, {r4, r5, lr}
51400384:	e200e00f 	and	lr, r0, #15	; 0xf
51400388:	e59fc0f0 	ldr	ip, [pc, #240]	; 51400480 <__oldboot_ram_start+0x480>
5140038c:	e08e408e 	add	r4, lr, lr, lsl #1
51400390:	e3a05001 	mov	r5, #1	; 0x1
51400394:	e08cc204 	add	ip, ip, r4, lsl #4
51400398:	e58c505c 	str	r5, [ip, #92]
5140039c:	e3a04000 	mov	r4, #0	; 0x0
514003a0:	e58c4060 	str	r4, [ip, #96]
514003a4:	e5cc4064 	strb	r4, [ip, #100]
514003a8:	e58c2068 	str	r2, [ip, #104]
514003ac:	e59f20f4 	ldr	r2, [pc, #244]	; 514004a8 <__oldboot_ram_start+0x4a8>
514003b0:	e082260e 	add	r2, r2, lr, lsl #12
514003b4:	e58c2070 	str	r2, [ip, #112]
514003b8:	e2011003 	and	r1, r1, #3	; 0x3
514003bc:	e5cc1074 	strb	r1, [ip, #116]
514003c0:	e2000080 	and	r0, r0, #128	; 0x80
514003c4:	e58c0078 	str	r0, [ip, #120]
514003c8:	e5cc307c 	strb	r3, [ip, #124]
514003cc:	e58c4080 	str	r4, [ip, #128]
514003d0:	e58c4084 	str	r4, [ip, #132]
514003d4:	e59f20d0 	ldr	r2, [pc, #208]	; 514004ac <__oldboot_ram_start+0x4ac>
514003d8:	e082028e 	add	r0, r2, lr, lsl #5
514003dc:	e3e03000 	mvn	r3, #0	; 0x0
514003e0:	e5803008 	str	r3, [r0, #8]
514003e4:	e59c1068 	ldr	r1, [ip, #104]
514003e8:	e3811702 	orr	r1, r1, #524288	; 0x80000
514003ec:	e5801010 	str	r1, [r0, #16]
514003f0:	e5804014 	str	r4, [r0, #20]
514003f4:	e5dc1074 	ldrb	r1, [ip, #116]
514003f8:	e59c0068 	ldr	r0, [ip, #104]
514003fc:	e1800901 	orr	r0, r0, r1, lsl #18
51400400:	e3800306 	orr	r0, r0, #402653184	; 0x18000000
51400404:	e3800902 	orr	r0, r0, #32768	; 0x8000
51400408:	e782028e 	str	r0, [r2, lr, lsl #5]
5140040c:	e2420c02 	sub	r0, r2, #512	; 0x200
51400410:	e080128e 	add	r1, r0, lr, lsl #5
51400414:	e5813008 	str	r3, [r1, #8]
51400418:	e59c2068 	ldr	r2, [ip, #104]
5140041c:	e3822702 	orr	r2, r2, #524288	; 0x80000
51400420:	e5812010 	str	r2, [r1, #16]
51400424:	e5814014 	str	r4, [r1, #20]
51400428:	e5dc2074 	ldrb	r2, [ip, #116]
5140042c:	e59c1068 	ldr	r1, [ip, #104]
51400430:	e1811902 	orr	r1, r1, r2, lsl #18
51400434:	e3811306 	orr	r1, r1, #402653184	; 0x18000000
51400438:	e3811902 	orr	r1, r1, #32768	; 0x8000
5140043c:	e780128e 	str	r1, [r0, lr, lsl #5]
51400440:	e3a0231f 	mov	r2, #2080374784	; 0x7c000000
51400444:	e592081c 	ldr	r0, [r2, #2076]
51400448:	e28e3010 	add	r3, lr, #16	; 0x10
5140044c:	e1a01e15 	mov	r1, r5, lsl lr
51400450:	e1811315 	orr	r1, r1, r5, lsl r3
51400454:	e1810000 	orr	r0, r1, r0
51400458:	e582081c 	str	r0, [r2, #2076]
5140045c:	e8bd8030 	ldmia	sp!, {r4, r5, pc}
51400460:	51444760 	cmppl	r4, r0, ror #14
51400464:	7e00f000 	cdpvc	0, 0, cr15, cr0, cr0, {0}
51400468:	7c100000 	ldcvc	0, cr0, [r0], {0}
5140046c:	0000544f 	andeq	r5, r0, pc, asr #8
51400470:	0000540f 	andeq	r5, r0, pc, lsl #8
51400474:	00002710 	andeq	r2, r0, r0, lsl r7
51400478:	00040001 	andeq	r0, r4, r1
5140047c:	800c3810 	andhi	r3, ip, r0, lsl r8
51400480:	51446da0 	smlaltbpl	r6, r4, r0, sp
51400484:	6f727245 	svcvs	0x00727245
51400488:	203a2072 	eorcss	r2, sl, r2, ror r0
5140048c:	72727543 	rsbvcs	r7, r2, #281018368	; 0x10c00000
51400490:	20746e65 	rsbcss	r6, r4, r5, ror #28
51400494:	65646f4d 	strvsb	r6, [r4, #-3917]!
51400498:	20736920 	rsbcss	r6, r3, r0, lsr #18
5140049c:	74736f48 	ldrvcbt	r6, [r3], #-3912
514004a0:	0000000a 	andeq	r0, r0, sl
514004a4:	514447a0 	smlaltbpl	r4, r4, r0, r7
514004a8:	7c001000 	stcvc	0, cr1, [r0], {0}
514004ac:	7c000b00 	stcvc	11, cr0, [r0], {0}
514004b0:	e92d4010 	stmdb	sp!, {r4, lr}
514004b4:	e51f003c 	ldr	r0, [pc, #-60]	; 51400480 <__oldboot_ram_start+0x480>
514004b8:	e5900008 	ldr	r0, [r0, #8]
514004bc:	e3500000 	cmp	r0, #0	; 0x0
514004c0:	1a000001 	bne	514004cc <__oldboot_ram_start+0x4cc>
514004c4:	e3a04c02 	mov	r4, #512	; 0x200
514004c8:	ea000000 	b	514004d0 <__oldboot_ram_start+0x4d0>
514004cc:	e3a04040 	mov	r4, #64	; 0x40
514004d0:	e3a03000 	mov	r3, #0	; 0x0
514004d4:	e1a02004 	mov	r2, r4
514004d8:	e3a01002 	mov	r1, #2	; 0x2
514004dc:	e3a00082 	mov	r0, #130	; 0x82
514004e0:	ebffffa6 	bl	51400380 <__oldboot_ram_start+0x380>
514004e4:	e1a02004 	mov	r2, r4
514004e8:	e8bd4010 	ldmia	sp!, {r4, lr}
514004ec:	e3a03000 	mov	r3, #0	; 0x0
514004f0:	e3a01002 	mov	r1, #2	; 0x2
514004f4:	e3a00002 	mov	r0, #2	; 0x2
514004f8:	eaffffa0 	b	51400380 <__oldboot_ram_start+0x380>
514004fc:	e92d4008 	stmdb	sp!, {r3, lr}
51400500:	e3a01001 	mov	r1, #1	; 0x1
51400504:	e58d1000 	str	r1, [sp]
51400508:	e5dd1000 	ldrb	r1, [sp]
5140050c:	e3510000 	cmp	r1, #0	; 0x0
51400510:	1a000003 	bne	51400524 <__oldboot_ram_start+0x524>
51400514:	e2001cff 	and	r1, r0, #65280	; 0xff00
51400518:	e20000ff 	and	r0, r0, #255	; 0xff
5140051c:	e1a01421 	mov	r1, r1, lsr #8
51400520:	e1810400 	orr	r0, r1, r0, lsl #8
51400524:	e8bd9000 	ldmia	sp!, {ip, pc}
51400528:	e92d4008 	stmdb	sp!, {r3, lr}
5140052c:	e3a01001 	mov	r1, #1	; 0x1
51400530:	e58d1000 	str	r1, [sp]
51400534:	e5dd1000 	ldrb	r1, [sp]
51400538:	e3510000 	cmp	r1, #0	; 0x0
5140053c:	1a000005 	bne	51400558 <__oldboot_ram_start+0x558>
51400540:	e20028ff 	and	r2, r0, #16711680	; 0xff0000
51400544:	e1a01c20 	mov	r1, r0, lsr #24
51400548:	e1811422 	orr	r1, r1, r2, lsr #8
5140054c:	e2002cff 	and	r2, r0, #65280	; 0xff00
51400550:	e1811402 	orr	r1, r1, r2, lsl #8
51400554:	e1810c00 	orr	r0, r1, r0, lsl #24
51400558:	e8bd9000 	ldmia	sp!, {ip, pc}
5140055c:	e3a0231f 	mov	r2, #2080374784	; 0x7c000000
51400560:	e5921800 	ldr	r1, [r2, #2048]
51400564:	e3c11e3f 	bic	r1, r1, #1008	; 0x3f0
51400568:	e1810200 	orr	r0, r1, r0, lsl #4
5140056c:	e3800701 	orr	r0, r0, #262144	; 0x40000
51400570:	e5820800 	str	r0, [r2, #2048]
51400574:	e12fff1e 	bx	lr
51400578:	e51f20d4 	ldr	r2, [pc, #-212]	; 514004ac <__oldboot_ram_start+0x4ac>
5140057c:	e7921280 	ldr	r1, [r2, r0, lsl #5]
51400580:	e3811321 	orr	r1, r1, #-2080374784	; 0x84000000
51400584:	e7821280 	str	r1, [r2, r0, lsl #5]
51400588:	e12fff1e 	bx	lr
5140058c:	e51f10e8 	ldr	r1, [pc, #-232]	; 514004ac <__oldboot_ram_start+0x4ac>
51400590:	e0812280 	add	r2, r1, r0, lsl #5
51400594:	e5921008 	ldr	r1, [r2, #8]
51400598:	e5821008 	str	r1, [r2, #8]
5140059c:	e3500002 	cmp	r0, #2	; 0x2
514005a0:	1a000005 	bne	514005bc <__oldboot_ram_start+0x5bc>
514005a4:	e3a0031f 	mov	r0, #2080374784	; 0x7c000000
514005a8:	e5900b40 	ldr	r0, [r0, #2880]
514005ac:	e3110001 	tst	r1, #1	; 0x1
514005b0:	0a000001 	beq	514005bc <__oldboot_ram_start+0x5bc>
514005b4:	e3a00002 	mov	r0, #2	; 0x2
514005b8:	eaffffee 	b	51400578 <__oldboot_ram_start+0x578>
514005bc:	e12fff1e 	bx	lr
514005c0:	e51fc11c 	ldr	ip, [pc, #-284]	; 514004ac <__oldboot_ram_start+0x4ac>
514005c4:	e51f214c 	ldr	r2, [pc, #-332]	; 51400480 <__oldboot_ram_start+0x480>
514005c8:	e2823080 	add	r3, r2, #128	; 0x80
514005cc:	e59c1008 	ldr	r1, [ip, #8]
514005d0:	e58c1008 	str	r1, [ip, #8]
514005d4:	e3110001 	tst	r1, #1	; 0x1
514005d8:	1a00000e 	bne	51400618 <__oldboot_ram_start+0x618>
514005dc:	e3500000 	cmp	r0, #0	; 0x0
514005e0:	0a000002 	beq	514005f0 <__oldboot_ram_start+0x5f0>
514005e4:	e3a01001 	mov	r1, #1	; 0x1
514005e8:	e1c210b2 	strh	r1, [r2, #2]
514005ec:	e1c210b0 	strh	r1, [r2]
514005f0:	e5931000 	ldr	r1, [r3]
514005f4:	e3a03000 	mov	r3, #0	; 0x0
514005f8:	e1530000 	cmp	r3, r0
514005fc:	2a000005 	bcs	51400618 <__oldboot_ram_start+0x618>
51400600:	e592c070 	ldr	ip, [r2, #112]
51400604:	e59cc000 	ldr	ip, [ip]
51400608:	e581c000 	str	ip, [r1]
5140060c:	e2811004 	add	r1, r1, #4	; 0x4
51400610:	e2833004 	add	r3, r3, #4	; 0x4
51400614:	eafffff7 	b	514005f8 <__oldboot_ram_start+0x5f8>
51400618:	e12fff1e 	bx	lr
5140061c:	e92d41f0 	stmdb	sp!, {r4, r5, r6, r7, r8, lr}
51400620:	e1a05000 	mov	r5, r0
51400624:	e51f01ac 	ldr	r0, [pc, #-428]	; 51400480 <__oldboot_ram_start+0x480>
51400628:	e0851085 	add	r1, r5, r5, lsl #1
5140062c:	e0806201 	add	r6, r0, r1, lsl #4
51400630:	e2864080 	add	r4, r6, #128	; 0x80
51400634:	e59f7268 	ldr	r7, [pc, #616]	; 514008a4 <__oldboot_ram_start+0x8a4>
51400638:	e5943004 	ldr	r3, [r4, #4]
5140063c:	e1a02005 	mov	r2, r5
51400640:	e28f1e26 	add	r1, pc, #608	; 0x260
51400644:	e3a0000a 	mov	r0, #10	; 0xa
51400648:	eb000b48 	bl	51403370 <__oldboot_ram_start+0x3370>
5140064c:	e0871285 	add	r1, r7, r5, lsl #5
51400650:	e5910008 	ldr	r0, [r1, #8]
51400654:	e5810008 	str	r0, [r1, #8]
51400658:	e3100001 	tst	r0, #1	; 0x1
5140065c:	0a000003 	beq	51400670 <__oldboot_ram_start+0x670>
51400660:	e7970285 	ldr	r0, [r7, r5, lsl #5]
51400664:	e3800302 	orr	r0, r0, #134217728	; 0x8000000
51400668:	e7870285 	str	r0, [r7, r5, lsl #5]
5140066c:	e8bd81f0 	ldmia	sp!, {r4, r5, r6, r7, r8, pc}
51400670:	e5940000 	ldr	r0, [r4]
51400674:	e5941004 	ldr	r1, [r4, #4]
51400678:	e5962068 	ldr	r2, [r6, #104]
5140067c:	e1510002 	cmp	r1, r2
51400680:	3a000000 	bcc	51400688 <__oldboot_ram_start+0x688>
51400684:	e1a01002 	mov	r1, r2
51400688:	e1a02001 	mov	r2, r1
5140068c:	e3a01000 	mov	r1, #0	; 0x0
51400690:	e1510002 	cmp	r1, r2
51400694:	2a000005 	bcs	514006b0 <__oldboot_ram_start+0x6b0>
51400698:	e596c070 	ldr	ip, [r6, #112]
5140069c:	e5903000 	ldr	r3, [r0]
514006a0:	e58c3000 	str	r3, [ip]
514006a4:	e2800004 	add	r0, r0, #4	; 0x4
514006a8:	e2811004 	add	r1, r1, #4	; 0x4
514006ac:	eafffff7 	b	51400690 <__oldboot_ram_start+0x690>
514006b0:	e5940000 	ldr	r0, [r4]
514006b4:	e0800002 	add	r0, r0, r2
514006b8:	e5840000 	str	r0, [r4]
514006bc:	e5940004 	ldr	r0, [r4, #4]
514006c0:	e0400002 	sub	r0, r0, r2
514006c4:	e5840004 	str	r0, [r4, #4]
514006c8:	eaffffe7 	b	5140066c <__oldboot_ram_start+0x66c>
514006cc:	e52de004 	str	lr, [sp, #-4]!
514006d0:	e51fc258 	ldr	ip, [pc, #-600]	; 51400480 <__oldboot_ram_start+0x480>
514006d4:	e28c0080 	add	r0, ip, #128	; 0x80
514006d8:	e59f21c4 	ldr	r2, [pc, #452]	; 514008a4 <__oldboot_ram_start+0x8a4>
514006dc:	e5921008 	ldr	r1, [r2, #8]
514006e0:	e5821008 	str	r1, [r2, #8]
514006e4:	e1dc30b0 	ldrh	r3, [ip]
514006e8:	e3530001 	cmp	r3, #1	; 0x1
514006ec:	1a000019 	bne	51400758 <__oldboot_ram_start+0x758>
514006f0:	e3110001 	tst	r1, #1	; 0x1
514006f4:	1a000017 	bne	51400758 <__oldboot_ram_start+0x758>
514006f8:	e3110010 	tst	r1, #16	; 0x10
514006fc:	0a000015 	beq	51400758 <__oldboot_ram_start+0x758>
51400700:	e3a0e000 	mov	lr, #0	; 0x0
51400704:	e1cce0b0 	strh	lr, [ip]
51400708:	e5901004 	ldr	r1, [r0, #4]
5140070c:	e3813702 	orr	r3, r1, #524288	; 0x80000
51400710:	e5823010 	str	r3, [r2, #16]
51400714:	e580e004 	str	lr, [r0, #4]
51400718:	e5903000 	ldr	r3, [r0]
5140071c:	e59ce06c 	ldr	lr, [ip, #108]
51400720:	e38ee321 	orr	lr, lr, #-2080374784	; 0x84000000
51400724:	e582e000 	str	lr, [r2]
51400728:	e3a02000 	mov	r2, #0	; 0x0
5140072c:	e59cc070 	ldr	ip, [ip, #112]
51400730:	e1520001 	cmp	r2, r1
51400734:	2a000004 	bcs	5140074c <__oldboot_ram_start+0x74c>
51400738:	e593e000 	ldr	lr, [r3]
5140073c:	e58ce000 	str	lr, [ip]
51400740:	e2833004 	add	r3, r3, #4	; 0x4
51400744:	e2822004 	add	r2, r2, #4	; 0x4
51400748:	eafffff8 	b	51400730 <__oldboot_ram_start+0x730>
5140074c:	e5902000 	ldr	r2, [r0]
51400750:	e0821001 	add	r1, r2, r1
51400754:	e5801000 	str	r1, [r0]
51400758:	e49df004 	ldr	pc, [sp], #4
5140075c:	e92d47f0 	stmdb	sp!, {r4, r5, r6, r7, r8, r9, sl, lr}
51400760:	e1a06000 	mov	r6, r0
51400764:	e1a04001 	mov	r4, r1
51400768:	e51f02f0 	ldr	r0, [pc, #-752]	; 51400480 <__oldboot_ram_start+0x480>
5140076c:	e0861086 	add	r1, r6, r6, lsl #1
51400770:	e0805201 	add	r5, r0, r1, lsl #4
51400774:	e51f02d0 	ldr	r0, [pc, #-720]	; 514004ac <__oldboot_ram_start+0x4ac>
51400778:	e0800286 	add	r0, r0, r6, lsl #5
5140077c:	e5901008 	ldr	r1, [r0, #8]
51400780:	e5801008 	str	r1, [r0, #8]
51400784:	e3560002 	cmp	r6, #2	; 0x2
51400788:	1a000044 	bne	514008a0 <__oldboot_ram_start+0x8a0>
5140078c:	e3c40003 	bic	r0, r4, #3	; 0x3
51400790:	e2808004 	add	r8, r0, #4	; 0x4
51400794:	e51f031c 	ldr	r0, [pc, #-796]	; 51400480 <__oldboot_ram_start+0x480>
51400798:	e59070c8 	ldr	r7, [r0, #200]
5140079c:	e1a00008 	mov	r0, r8
514007a0:	e1a01007 	mov	r1, r7
514007a4:	eb00fdcf 	bl	5143fee8 <__oldboot_ram_start+0x3fee8>
514007a8:	e1a09000 	mov	r9, r0
514007ac:	e1a01007 	mov	r1, r7
514007b0:	e1a00004 	mov	r0, r4
514007b4:	eb00fdcb 	bl	5143fee8 <__oldboot_ram_start+0x3fee8>
514007b8:	e3510000 	cmp	r1, #0	; 0x0
514007bc:	0a000001 	beq	514007c8 <__oldboot_ram_start+0x7c8>
514007c0:	e3a00001 	mov	r0, #1	; 0x1
514007c4:	ea000000 	b	514007cc <__oldboot_ram_start+0x7cc>
514007c8:	e3a00000 	mov	r0, #0	; 0x0
514007cc:	e0800009 	add	r0, r0, r9
514007d0:	e59f10ec 	ldr	r1, [pc, #236]	; 514008c4 <__oldboot_ram_start+0x8c4>
514007d4:	e3e02000 	mvn	r2, #0	; 0x0
514007d8:	e5812008 	str	r2, [r1, #8]
514007dc:	e1880980 	orr	r0, r8, r0, lsl #19
514007e0:	e5810010 	str	r0, [r1, #16]
514007e4:	e51f138c 	ldr	r1, [pc, #-908]	; 51400460 <__oldboot_ram_start+0x460>
514007e8:	e5d10001 	ldrb	r0, [r1, #1]
514007ec:	e3500000 	cmp	r0, #0	; 0x0
514007f0:	1a00001b 	bne	51400864 <__oldboot_ram_start+0x864>
514007f4:	e59f20cc 	ldr	r2, [pc, #204]	; 514008c8 <__oldboot_ram_start+0x8c8>
514007f8:	e1d200b0 	ldrh	r0, [r2]
514007fc:	e2421a02 	sub	r1, r2, #8192	; 0x2000
51400800:	e0810080 	add	r0, r1, r0, lsl #1
51400804:	e1c040b0 	strh	r4, [r0]
51400808:	e1d200b0 	ldrh	r0, [r2]
5140080c:	e59f10b8 	ldr	r1, [pc, #184]	; 514008cc <__oldboot_ram_start+0x8cc>
51400810:	e0810480 	add	r0, r1, r0, lsl #9
51400814:	e3a01000 	mov	r1, #0	; 0x0
51400818:	e1510004 	cmp	r1, r4
5140081c:	2a000005 	bcs	51400838 <__oldboot_ram_start+0x838>
51400820:	e5953070 	ldr	r3, [r5, #112]
51400824:	e5933000 	ldr	r3, [r3]
51400828:	e5803000 	str	r3, [r0]
5140082c:	e2800004 	add	r0, r0, #4	; 0x4
51400830:	e2811004 	add	r1, r1, #4	; 0x4
51400834:	eafffff7 	b	51400818 <__oldboot_ram_start+0x818>
51400838:	e1d200b0 	ldrh	r0, [r2]
5140083c:	e2800001 	add	r0, r0, #1	; 0x1
51400840:	e3c00801 	bic	r0, r0, #65536	; 0x10000
51400844:	e1c200b0 	strh	r0, [r2]
51400848:	e3500a01 	cmp	r0, #4096	; 0x1000
5140084c:	1a000001 	bne	51400858 <__oldboot_ram_start+0x858>
51400850:	e3a00000 	mov	r0, #0	; 0x0
51400854:	e1c200b0 	strh	r0, [r2]
51400858:	e1a00006 	mov	r0, r6
5140085c:	e8bd47f0 	ldmia	sp!, {r4, r5, r6, r7, r8, r9, sl, lr}
51400860:	eaffff44 	b	51400578 <__oldboot_ram_start+0x578>
51400864:	e5910004 	ldr	r0, [r1, #4]
51400868:	e0802004 	add	r2, r0, r4
5140086c:	e5812004 	str	r2, [r1, #4]
51400870:	e3a01000 	mov	r1, #0	; 0x0
51400874:	e1510004 	cmp	r1, r4
51400878:	2a000005 	bcs	51400894 <__oldboot_ram_start+0x894>
5140087c:	e5952070 	ldr	r2, [r5, #112]
51400880:	e5922000 	ldr	r2, [r2]
51400884:	e5802000 	str	r2, [r0]
51400888:	e2800004 	add	r0, r0, #4	; 0x4
5140088c:	e2811004 	add	r1, r1, #4	; 0x4
51400890:	eafffff7 	b	51400874 <__oldboot_ram_start+0x874>
51400894:	e1a00006 	mov	r0, r6
51400898:	e8bd47f0 	ldmia	sp!, {r4, r5, r6, r7, r8, r9, sl, lr}
5140089c:	eaffff35 	b	51400578 <__oldboot_ram_start+0x578>
514008a0:	e8bd87f0 	ldmia	sp!, {r4, r5, r6, r7, r8, r9, sl, pc}
514008a4:	7c000900 	stcvc	9, cr0, [r0], {0}
514008a8:	54435748 	strplb	r5, [r3], #-1864
514008ac:	505f4c52 	subpls	r4, pc, r2, asr ip
514008b0:	65636f72 	strvsb	r6, [r3, #-3954]!
514008b4:	495f7373 	ldmmidb	pc, {r0, r1, r4, r5, r6, r8, r9, ip, sp, lr}^
514008b8:	6425204e 	strvst	r2, [r5], #-78
514008bc:	0a642520 	beq	52d09d44 <__oldboot_ram_start+0x1909d44>
514008c0:	00000000 	andeq	r0, r0, r0
514008c4:	7c000b40 	stcvc	11, cr0, [r0], {64}
514008c8:	514c5e60 	cmppl	ip, r0, ror #28
514008cc:	51900000 	orrpls	r0, r0, r0
514008d0:	e92d47f0 	stmdb	sp!, {r4, r5, r6, r7, r8, r9, sl, lr}
514008d4:	e51f545c 	ldr	r5, [pc, #-1116]	; 51400480 <__oldboot_ram_start+0x480>
514008d8:	e2854080 	add	r4, r5, #128	; 0x80
514008dc:	e2850054 	add	r0, r5, #84	; 0x54
514008e0:	e5951070 	ldr	r1, [r5, #112]
514008e4:	e5911000 	ldr	r1, [r1]
514008e8:	e5801000 	str	r1, [r0]
514008ec:	e5951070 	ldr	r1, [r5, #112]
514008f0:	e5911000 	ldr	r1, [r1]
514008f4:	e5801004 	str	r1, [r0, #4]
514008f8:	e1d505b6 	ldrh	r0, [r5, #86]
514008fc:	ebfffefe 	bl	514004fc <__oldboot_ram_start+0x4fc>
51400900:	e1c505b6 	strh	r0, [r5, #86]
51400904:	e1d505b8 	ldrh	r0, [r5, #88]
51400908:	ebfffefb 	bl	514004fc <__oldboot_ram_start+0x4fc>
5140090c:	e1c505b8 	strh	r0, [r5, #88]
51400910:	e1d505ba 	ldrh	r0, [r5, #90]
51400914:	ebfffef8 	bl	514004fc <__oldboot_ram_start+0x4fc>
51400918:	e1c505ba 	strh	r0, [r5, #90]
5140091c:	e5d50055 	ldrb	r0, [r5, #85]
51400920:	e51f74c8 	ldr	r7, [pc, #-1224]	; 51400460 <__oldboot_ram_start+0x460>
51400924:	e3a09000 	mov	r9, #0	; 0x0
51400928:	e3500008 	cmp	r0, #8	; 0x8
5140092c:	e3a06001 	mov	r6, #1	; 0x1
51400930:	0a000039 	beq	51400a1c <__oldboot_ram_start+0xa1c>
51400934:	ca00000b 	bgt	51400968 <__oldboot_ram_start+0x968>
51400938:	e59f8170 	ldr	r8, [pc, #368]	; 51400ab0 <__oldboot_ram_start+0xab0>
5140093c:	e3500007 	cmp	r0, #7	; 0x7
51400940:	908ff100 	addls	pc, pc, r0, lsl #2
51400944:	ea000137 	b	51400e28 <__oldboot_ram_start+0xe28>
51400948:	ea0000fa 	b	51400d38 <__oldboot_ram_start+0xd38>
5140094c:	ea0000c1 	b	51400c58 <__oldboot_ram_start+0xc58>
51400950:	ea000134 	b	51400e28 <__oldboot_ram_start+0xe28>
51400954:	ea0000db 	b	51400cc8 <__oldboot_ram_start+0xcc8>
51400958:	ea000132 	b	51400e28 <__oldboot_ram_start+0xe28>
5140095c:	ea000019 	b	514009c8 <__oldboot_ram_start+0x9c8>
51400960:	ea000035 	b	51400a3c <__oldboot_ram_start+0xa3c>
51400964:	ea000021 	b	514009f0 <__oldboot_ram_start+0x9f0>
51400968:	e350000c 	cmp	r0, #12	; 0xc
5140096c:	0a00011f 	beq	51400df0 <__oldboot_ram_start+0xdf0>
51400970:	ca00000c 	bgt	514009a8 <__oldboot_ram_start+0x9a8>
51400974:	e3500009 	cmp	r0, #9	; 0x9
51400978:	0a000020 	beq	51400a00 <__oldboot_ram_start+0xa00>
5140097c:	e51f7524 	ldr	r7, [pc, #-1316]	; 51400460 <__oldboot_ram_start+0x460>
51400980:	e350000a 	cmp	r0, #10	; 0xa
51400984:	0a000113 	beq	51400dd8 <__oldboot_ram_start+0xdd8>
51400988:	e350000b 	cmp	r0, #11	; 0xb
5140098c:	1a000125 	bne	51400e28 <__oldboot_ram_start+0xe28>
51400990:	e28f1f47 	add	r1, pc, #284	; 0x11c
51400994:	e3a0000a 	mov	r0, #10	; 0xa
51400998:	eb000a74 	bl	51403370 <__oldboot_ram_start+0x3370>
5140099c:	e1d505b6 	ldrh	r0, [r5, #86]
514009a0:	e5c70000 	strb	r0, [r7]
514009a4:	ea000122 	b	51400e34 <__oldboot_ram_start+0xe34>
514009a8:	e3500020 	cmp	r0, #32	; 0x20
514009ac:	0a000113 	beq	51400e00 <__oldboot_ram_start+0xe00>
514009b0:	e3500022 	cmp	r0, #34	; 0x22
514009b4:	1a00011b 	bne	51400e28 <__oldboot_ram_start+0xe28>
514009b8:	e28f1e11 	add	r1, pc, #272	; 0x110
514009bc:	e3a0000a 	mov	r0, #10	; 0xa
514009c0:	eb000a6a 	bl	51403370 <__oldboot_ram_start+0x3370>
514009c4:	ea00011a 	b	51400e34 <__oldboot_ram_start+0xe34>
514009c8:	e28f1f4a 	add	r1, pc, #296	; 0x128
514009cc:	e3a0000a 	mov	r0, #10	; 0xa
514009d0:	eb000a66 	bl	51403370 <__oldboot_ram_start+0x3370>
514009d4:	e1d505b6 	ldrh	r0, [r5, #86]
514009d8:	e5951008 	ldr	r1, [r5, #8]
514009dc:	e1810200 	orr	r0, r1, r0, lsl #4
514009e0:	e3a0131f 	mov	r1, #2080374784	; 0x7c000000
514009e4:	e3800701 	orr	r0, r0, #262144	; 0x40000
514009e8:	e5810800 	str	r0, [r1, #2048]
514009ec:	ea000110 	b	51400e34 <__oldboot_ram_start+0xe34>
514009f0:	e28f1f46 	add	r1, pc, #280	; 0x118
514009f4:	e3a0000a 	mov	r0, #10	; 0xa
514009f8:	eb000a5c 	bl	51403370 <__oldboot_ram_start+0x3370>
514009fc:	ea00010c 	b	51400e34 <__oldboot_ram_start+0xe34>
51400a00:	e28f1f49 	add	r1, pc, #292	; 0x124
51400a04:	e3a0000a 	mov	r0, #10	; 0xa
51400a08:	eb000a58 	bl	51403370 <__oldboot_ram_start+0x3370>
51400a0c:	e1d505b6 	ldrh	r0, [r5, #86]
51400a10:	e1c700b2 	strh	r0, [r7, #2]
51400a14:	e1c560b4 	strh	r6, [r5, #4]
51400a18:	ea000105 	b	51400e34 <__oldboot_ram_start+0xe34>
51400a1c:	e28f1f4a 	add	r1, pc, #296	; 0x128
51400a20:	e3a0000a 	mov	r0, #10	; 0xa
51400a24:	eb000a51 	bl	51403370 <__oldboot_ram_start+0x3370>
51400a28:	e59f013c 	ldr	r0, [pc, #316]	; 51400b6c <__oldboot_ram_start+0xb6c>
51400a2c:	e5840000 	str	r0, [r4]
51400a30:	e3a00002 	mov	r0, #2	; 0x2
51400a34:	e5840004 	str	r0, [r4, #4]
51400a38:	ea0000fd 	b	51400e34 <__oldboot_ram_start+0xe34>
51400a3c:	e28f1f4b 	add	r1, pc, #300	; 0x12c
51400a40:	e3a0000a 	mov	r0, #10	; 0xa
51400a44:	eb000a49 	bl	51403370 <__oldboot_ram_start+0x3370>
51400a48:	e1d525b6 	ldrh	r2, [r5, #86]
51400a4c:	e1a00422 	mov	r0, r2, lsr #8
51400a50:	e3500001 	cmp	r0, #1	; 0x1
51400a54:	0a00000d 	beq	51400a90 <__oldboot_ram_start+0xa90>
51400a58:	e3500002 	cmp	r0, #2	; 0x2
51400a5c:	0a000057 	beq	51400bc0 <__oldboot_ram_start+0xbc0>
51400a60:	e3500003 	cmp	r0, #3	; 0x3
51400a64:	0a000062 	beq	51400bf4 <__oldboot_ram_start+0xbf4>
51400a68:	e3500006 	cmp	r0, #6	; 0x6
51400a6c:	1a0000f0 	bne	51400e34 <__oldboot_ram_start+0xe34>
51400a70:	e28f1f45 	add	r1, pc, #276	; 0x114
51400a74:	e3a0000a 	mov	r0, #10	; 0xa
51400a78:	eb000a3c 	bl	51403370 <__oldboot_ram_start+0x3370>
51400a7c:	e59f0120 	ldr	r0, [pc, #288]	; 51400ba4 <__oldboot_ram_start+0xba4>
51400a80:	e5840000 	str	r0, [r4]
51400a84:	e3a0000a 	mov	r0, #10	; 0xa
51400a88:	e5840004 	str	r0, [r4, #4]
51400a8c:	ea0000e8 	b	51400e34 <__oldboot_ram_start+0xe34>
51400a90:	e28f1e11 	add	r1, pc, #272	; 0x110
51400a94:	e3a0000a 	mov	r0, #10	; 0xa
51400a98:	eb000a34 	bl	51403370 <__oldboot_ram_start+0x3370>
51400a9c:	e597005c 	ldr	r0, [r7, #92]
51400aa0:	e5840000 	str	r0, [r4]
51400aa4:	e5970078 	ldr	r0, [r7, #120]
51400aa8:	e5840004 	str	r0, [r4, #4]
51400aac:	ea0000e0 	b	51400e34 <__oldboot_ram_start+0xe34>
51400ab0:	514447e0 	smlalttpl	r4, r4, r0, r7
51400ab4:	4e415453 	mcrmi	4, 2, r5, cr1, cr3, {2}
51400ab8:	44524144 	ldrmib	r4, [r2], #-324
51400abc:	5445535f 	strplb	r5, [r5], #-863
51400ac0:	544e495f 	strplb	r4, [lr], #-2399
51400ac4:	41465245 	cmpmi	r6, r5, asr #4
51400ac8:	0a204543 	beq	51c11fdc <__oldboot_ram_start+0x811fdc>
51400acc:	00000000 	andeq	r0, r0, r0
51400ad0:	41545320 	cmpmi	r4, r0, lsr #6
51400ad4:	5241444e 	subpl	r4, r1, #1308622848	; 0x4e000000
51400ad8:	45535f44 	ldrmib	r5, [r3, #-3908]
51400adc:	4f435f54 	svcmi	0x00435f54
51400ae0:	4f52544e 	svcmi	0x0052544e
51400ae4:	494c5f4c 	stmmidb	ip, {r2, r3, r6, r8, r9, sl, fp, ip, lr}^
51400ae8:	535f454e 	cmppl	pc, #327155712	; 0x13800000
51400aec:	45544154 	ldrmib	r4, [r4, #-340]
51400af0:	0a20495f 	beq	51c13074 <__oldboot_ram_start+0x813074>
51400af4:	00000000 	andeq	r0, r0, r0
51400af8:	41545320 	cmpmi	r4, r0, lsr #6
51400afc:	5241444e 	subpl	r4, r1, #1308622848	; 0x4e000000
51400b00:	45535f44 	ldrmib	r5, [r3, #-3908]
51400b04:	44415f54 	strmib	r5, [r1], #-3924
51400b08:	53455244 	movtpl	r5, #21060	; 0x5244
51400b0c:	000a2053 	andeq	r2, sl, r3, asr r0
51400b10:	41545320 	cmpmi	r4, r0, lsr #6
51400b14:	5241444e 	subpl	r4, r1, #1308622848	; 0x4e000000
51400b18:	45535f44 	ldrmib	r5, [r3, #-3908]
51400b1c:	45445f54 	strmib	r5, [r4, #-3924]
51400b20:	49524353 	ldmmidb	r2, {r0, r1, r4, r6, r8, r9, lr}^
51400b24:	524f5450 	subpl	r5, pc, #1342177280	; 0x50000000
51400b28:	00000a20 	andeq	r0, r0, r0, lsr #20
51400b2c:	41545320 	cmpmi	r4, r0, lsr #6
51400b30:	5241444e 	subpl	r4, r1, #1308622848	; 0x4e000000
51400b34:	45535f44 	ldrmib	r5, [r3, #-3908]
51400b38:	4f435f54 	svcmi	0x00435f54
51400b3c:	4749464e 	strmib	r4, [r9, -lr, asr #12]
51400b40:	54415255 	strplb	r5, [r1], #-597
51400b44:	204e4f49 	subcs	r4, lr, r9, asr #30
51400b48:	0000000a 	andeq	r0, r0, sl
51400b4c:	41545320 	cmpmi	r4, r0, lsr #6
51400b50:	5241444e 	subpl	r4, r1, #1308622848	; 0x4e000000
51400b54:	45475f44 	strmib	r5, [r7, #-3908]
51400b58:	4f435f54 	svcmi	0x00435f54
51400b5c:	4749464e 	strmib	r4, [r9, -lr, asr #12]
51400b60:	54415255 	strplb	r5, [r1], #-597
51400b64:	204e4f49 	subcs	r4, lr, r9, asr #30
51400b68:	0000000a 	andeq	r0, r0, sl
51400b6c:	51444762 	cmppl	r4, r2, ror #14
51400b70:	41545320 	cmpmi	r4, r0, lsr #6
51400b74:	5241444e 	subpl	r4, r1, #1308622848	; 0x4e000000
51400b78:	45475f44 	strmib	r5, [r7, #-3908]
51400b7c:	45445f54 	strmib	r5, [r4, #-3924]
51400b80:	49524353 	ldmmidb	r2, {r0, r1, r4, r6, r8, r9, lr}^
51400b84:	524f5450 	subpl	r5, pc, #1342177280	; 0x50000000
51400b88:	00000a20 	andeq	r0, r0, r0, lsr #20
51400b8c:	45442020 	strmib	r2, [r4, #-32]
51400b90:	45434956 	strmib	r4, [r3, #-2390]
51400b94:	4155515f 	cmpmi	r5, pc, asr r1
51400b98:	4946494c 	stmmidb	r6, {r2, r3, r6, r8, fp, lr}^
51400b9c:	0a205245 	beq	51c154b8 <__oldboot_ram_start+0x8154b8>
51400ba0:	00000000 	andeq	r0, r0, r0
51400ba4:	51440120 	cmppl	r4, r0, lsr #2
51400ba8:	45442020 	strmib	r2, [r4, #-32]
51400bac:	45434956 	strmib	r4, [r3, #-2390]
51400bb0:	5345445f 	movtpl	r4, #21599	; 0x545f
51400bb4:	50495243 	subpl	r5, r9, r3, asr #4
51400bb8:	20524f54 	subcss	r4, r2, r4, asr pc
51400bbc:	0000000a 	andeq	r0, r0, sl
51400bc0:	e28f1faa 	add	r1, pc, #680	; 0x2a8
51400bc4:	e3a0000a 	mov	r0, #10	; 0xa
51400bc8:	eb0009e8 	bl	51403370 <__oldboot_ram_start+0x3370>
51400bcc:	e5970060 	ldr	r0, [r7, #96]
51400bd0:	e5840000 	str	r0, [r4]
51400bd4:	e1d505ba 	ldrh	r0, [r5, #90]
51400bd8:	e597107c 	ldr	r1, [r7, #124]
51400bdc:	e1500001 	cmp	r0, r1
51400be0:	2a000001 	bcs	51400bec <__oldboot_ram_start+0xbec>
51400be4:	e5840004 	str	r0, [r4, #4]
51400be8:	ea000091 	b	51400e34 <__oldboot_ram_start+0xe34>
51400bec:	e5841004 	str	r1, [r4, #4]
51400bf0:	ea00008f 	b	51400e34 <__oldboot_ram_start+0xe34>
51400bf4:	e28f1e29 	add	r1, pc, #656	; 0x290
51400bf8:	e3a0000a 	mov	r0, #10	; 0xa
51400bfc:	eb0009db 	bl	51403370 <__oldboot_ram_start+0x3370>
51400c00:	e1d505b6 	ldrh	r0, [r5, #86]
51400c04:	e21000ff 	ands	r0, r0, #255	; 0xff
51400c08:	0a000008 	beq	51400c30 <__oldboot_ram_start+0xc30>
51400c0c:	e3500001 	cmp	r0, #1	; 0x1
51400c10:	0a00000b 	beq	51400c44 <__oldboot_ram_start+0xc44>
51400c14:	e3500002 	cmp	r0, #2	; 0x2
51400c18:	1a000085 	bne	51400e34 <__oldboot_ram_start+0xe34>
51400c1c:	e5970058 	ldr	r0, [r7, #88]
51400c20:	e5840000 	str	r0, [r4]
51400c24:	e5970074 	ldr	r0, [r7, #116]
51400c28:	e5840004 	str	r0, [r4, #4]
51400c2c:	ea000080 	b	51400e34 <__oldboot_ram_start+0xe34>
51400c30:	e5970050 	ldr	r0, [r7, #80]
51400c34:	e5840000 	str	r0, [r4]
51400c38:	e597006c 	ldr	r0, [r7, #108]
51400c3c:	e5840004 	str	r0, [r4, #4]
51400c40:	ea00007b 	b	51400e34 <__oldboot_ram_start+0xe34>
51400c44:	e5970054 	ldr	r0, [r7, #84]
51400c48:	e5840000 	str	r0, [r4]
51400c4c:	e5970070 	ldr	r0, [r7, #112]
51400c50:	e5840004 	str	r0, [r4, #4]
51400c54:	ea000076 	b	51400e34 <__oldboot_ram_start+0xe34>
51400c58:	e28f1f92 	add	r1, pc, #584	; 0x248
51400c5c:	e3a0000a 	mov	r0, #10	; 0xa
51400c60:	eb0009c2 	bl	51403370 <__oldboot_ram_start+0x3370>
51400c64:	e5d50054 	ldrb	r0, [r5, #84]
51400c68:	e3500000 	cmp	r0, #0	; 0x0
51400c6c:	0a000010 	beq	51400cb4 <__oldboot_ram_start+0xcb4>
51400c70:	e3500002 	cmp	r0, #2	; 0x2
51400c74:	1a00006e 	bne	51400e34 <__oldboot_ram_start+0xe34>
51400c78:	e1d505b6 	ldrh	r0, [r5, #86]
51400c7c:	e3500000 	cmp	r0, #0	; 0x0
51400c80:	1a00006b 	bne	51400e34 <__oldboot_ram_start+0xe34>
51400c84:	e1d505b8 	ldrh	r0, [r5, #88]
51400c88:	e310007f 	tst	r0, #127	; 0x7f
51400c8c:	1a000000 	bne	51400c94 <__oldboot_ram_start+0xc94>
51400c90:	e5c89002 	strb	r9, [r8, #2]
51400c94:	e200008f 	and	r0, r0, #143	; 0x8f
51400c98:	e3500001 	cmp	r0, #1	; 0x1
51400c9c:	1a000000 	bne	51400ca4 <__oldboot_ram_start+0xca4>
51400ca0:	e5c89003 	strb	r9, [r8, #3]
51400ca4:	e3500002 	cmp	r0, #2	; 0x2
51400ca8:	1a000061 	bne	51400e34 <__oldboot_ram_start+0xe34>
51400cac:	e5c89004 	strb	r9, [r8, #4]
51400cb0:	ea00005f 	b	51400e34 <__oldboot_ram_start+0xe34>
51400cb4:	e1d505b6 	ldrh	r0, [r5, #86]
51400cb8:	e3500001 	cmp	r0, #1	; 0x1
51400cbc:	1a00005c 	bne	51400e34 <__oldboot_ram_start+0xe34>
51400cc0:	e5879048 	str	r9, [r7, #72]
51400cc4:	ea00005a 	b	51400e34 <__oldboot_ram_start+0xe34>
51400cc8:	e28f1f7d 	add	r1, pc, #500	; 0x1f4
51400ccc:	e3a0000a 	mov	r0, #10	; 0xa
51400cd0:	eb0009a6 	bl	51403370 <__oldboot_ram_start+0x3370>
51400cd4:	e5d50054 	ldrb	r0, [r5, #84]
51400cd8:	e3500000 	cmp	r0, #0	; 0x0
51400cdc:	0a000010 	beq	51400d24 <__oldboot_ram_start+0xd24>
51400ce0:	e3500002 	cmp	r0, #2	; 0x2
51400ce4:	1a000052 	bne	51400e34 <__oldboot_ram_start+0xe34>
51400ce8:	e1d505b6 	ldrh	r0, [r5, #86]
51400cec:	e3500000 	cmp	r0, #0	; 0x0
51400cf0:	1a00004f 	bne	51400e34 <__oldboot_ram_start+0xe34>
51400cf4:	e1d505b8 	ldrh	r0, [r5, #88]
51400cf8:	e310007f 	tst	r0, #127	; 0x7f
51400cfc:	1a000000 	bne	51400d04 <__oldboot_ram_start+0xd04>
51400d00:	e5c86002 	strb	r6, [r8, #2]
51400d04:	e200008f 	and	r0, r0, #143	; 0x8f
51400d08:	e3500001 	cmp	r0, #1	; 0x1
51400d0c:	1a000000 	bne	51400d14 <__oldboot_ram_start+0xd14>
51400d10:	e5c86003 	strb	r6, [r8, #3]
51400d14:	e3500002 	cmp	r0, #2	; 0x2
51400d18:	1a000045 	bne	51400e34 <__oldboot_ram_start+0xe34>
51400d1c:	e5c86004 	strb	r6, [r8, #4]
51400d20:	ea000043 	b	51400e34 <__oldboot_ram_start+0xe34>
51400d24:	e1d505b6 	ldrh	r0, [r5, #86]
51400d28:	e3500001 	cmp	r0, #1	; 0x1
51400d2c:	1a000040 	bne	51400e34 <__oldboot_ram_start+0xe34>
51400d30:	e5876048 	str	r6, [r7, #72]
51400d34:	ea00003e 	b	51400e34 <__oldboot_ram_start+0xe34>
51400d38:	e28f1f67 	add	r1, pc, #412	; 0x19c
51400d3c:	e3a0000a 	mov	r0, #10	; 0xa
51400d40:	eb00098a 	bl	51403370 <__oldboot_ram_start+0x3370>
51400d44:	e5d50054 	ldrb	r0, [r5, #84]
51400d48:	e3500080 	cmp	r0, #128	; 0x80
51400d4c:	0a000016 	beq	51400dac <__oldboot_ram_start+0xdac>
51400d50:	e3500081 	cmp	r0, #129	; 0x81
51400d54:	0a00001a 	beq	51400dc4 <__oldboot_ram_start+0xdc4>
51400d58:	e3500082 	cmp	r0, #130	; 0x82
51400d5c:	1a000034 	bne	51400e34 <__oldboot_ram_start+0xe34>
51400d60:	e1d505b8 	ldrh	r0, [r5, #88]
51400d64:	e310007f 	tst	r0, #127	; 0x7f
51400d68:	1a000001 	bne	51400d74 <__oldboot_ram_start+0xd74>
51400d6c:	e59f0180 	ldr	r0, [pc, #384]	; 51400ef4 <__oldboot_ram_start+0xef4>
51400d70:	e5840000 	str	r0, [r4]
51400d74:	e1d505b8 	ldrh	r0, [r5, #88]
51400d78:	e200008f 	and	r0, r0, #143	; 0x8f
51400d7c:	e3500001 	cmp	r0, #1	; 0x1
51400d80:	1a000001 	bne	51400d8c <__oldboot_ram_start+0xd8c>
51400d84:	e59f016c 	ldr	r0, [pc, #364]	; 51400ef8 <__oldboot_ram_start+0xef8>
51400d88:	e5840000 	str	r0, [r4]
51400d8c:	e1d505b8 	ldrh	r0, [r5, #88]
51400d90:	e200008f 	and	r0, r0, #143	; 0x8f
51400d94:	e3500002 	cmp	r0, #2	; 0x2
51400d98:	1a000001 	bne	51400da4 <__oldboot_ram_start+0xda4>
51400d9c:	e59f0158 	ldr	r0, [pc, #344]	; 51400efc <__oldboot_ram_start+0xefc>
51400da0:	e5840000 	str	r0, [r4]
51400da4:	e5846004 	str	r6, [r4, #4]
51400da8:	ea000021 	b	51400e34 <__oldboot_ram_start+0xe34>
51400dac:	e5970048 	ldr	r0, [r7, #72]
51400db0:	e1860080 	orr	r0, r6, r0, lsl #1
51400db4:	e5c80000 	strb	r0, [r8]
51400db8:	e5848000 	str	r8, [r4]
51400dbc:	e5846004 	str	r6, [r4, #4]
51400dc0:	ea00001b 	b	51400e34 <__oldboot_ram_start+0xe34>
51400dc4:	e5c89001 	strb	r9, [r8, #1]
51400dc8:	e59f0130 	ldr	r0, [pc, #304]	; 51400f00 <__oldboot_ram_start+0xf00>
51400dcc:	e5840000 	str	r0, [r4]
51400dd0:	e5846004 	str	r6, [r4, #4]
51400dd4:	ea000016 	b	51400e34 <__oldboot_ram_start+0xe34>
51400dd8:	e28f1f49 	add	r1, pc, #292	; 0x124
51400ddc:	e3a0000a 	mov	r0, #10	; 0xa
51400de0:	eb000962 	bl	51403370 <__oldboot_ram_start+0x3370>
51400de4:	e5847000 	str	r7, [r4]
51400de8:	e5846004 	str	r6, [r4, #4]
51400dec:	ea000010 	b	51400e34 <__oldboot_ram_start+0xe34>
51400df0:	e28f1f49 	add	r1, pc, #292	; 0x124
51400df4:	e3a0000a 	mov	r0, #10	; 0xa
51400df8:	eb00095c 	bl	51403370 <__oldboot_ram_start+0x3370>
51400dfc:	ea00000c 	b	51400e34 <__oldboot_ram_start+0xe34>
51400e00:	e28f1f4b 	add	r1, pc, #300	; 0x12c
51400e04:	e3a0000a 	mov	r0, #10	; 0xa
51400e08:	eb000958 	bl	51403370 <__oldboot_ram_start+0x3370>
51400e0c:	e59f013c 	ldr	r0, [pc, #316]	; 51400f50 <__oldboot_ram_start+0xf50>
51400e10:	e5840000 	str	r0, [r4]
51400e14:	e1c590b2 	strh	r9, [r5, #2]
51400e18:	ebfffda4 	bl	514004b0 <__oldboot_ram_start+0x4b0>
51400e1c:	e3a00002 	mov	r0, #2	; 0x2
51400e20:	ebfffdd4 	bl	51400578 <__oldboot_ram_start+0x578>
51400e24:	ea000002 	b	51400e34 <__oldboot_ram_start+0xe34>
51400e28:	e28f1f49 	add	r1, pc, #292	; 0x124
51400e2c:	e3a00000 	mov	r0, #0	; 0x0
51400e30:	eb00094e 	bl	51403370 <__oldboot_ram_start+0x3370>
51400e34:	e1c560b0 	strh	r6, [r5]
51400e38:	e51f159c 	ldr	r1, [pc, #-1436]	; 514008a4 <__oldboot_ram_start+0x8a4>
51400e3c:	e5950068 	ldr	r0, [r5, #104]
51400e40:	e3802702 	orr	r2, r0, #524288	; 0x80000
51400e44:	e5812010 	str	r2, [r1, #16]
51400e48:	e595206c 	ldr	r2, [r5, #108]
51400e4c:	e3823301 	orr	r3, r2, #67108864	; 0x4000000
51400e50:	e5813000 	str	r3, [r1]
51400e54:	e2811c02 	add	r1, r1, #512	; 0x200
51400e58:	e3800206 	orr	r0, r0, #1610612736	; 0x60000000
51400e5c:	e3800702 	orr	r0, r0, #524288	; 0x80000
51400e60:	e5810010 	str	r0, [r1, #16]
51400e64:	e3820321 	orr	r0, r2, #-2080374784	; 0x84000000
51400e68:	e5810000 	str	r0, [r1]
51400e6c:	e8bd87f0 	ldmia	sp!, {r4, r5, r6, r7, r8, r9, sl, pc}
51400e70:	4f432020 	svcmi	0x00432020
51400e74:	4749464e 	strmib	r4, [r9, -lr, asr #12]
51400e78:	54415255 	strplb	r5, [r1], #-597
51400e7c:	5f4e4f49 	svcpl	0x004e4f49
51400e80:	43534544 	cmpmi	r3, #285212672	; 0x11000000
51400e84:	54504952 	ldrplb	r4, [r0], #-2386
51400e88:	000a524f 	andeq	r5, sl, pc, asr #4
51400e8c:	54532020 	ldrplb	r2, [r3], #-32
51400e90:	474e4952 	smlsldmi	r4, lr, r2, r9
51400e94:	5345445f 	movtpl	r4, #21599	; 0x545f
51400e98:	50495243 	subpl	r5, r9, r3, asr #4
51400e9c:	20524f54 	subcss	r4, r2, r4, asr pc
51400ea0:	78257830 	stmvcda	r5!, {r4, r5, fp, ip, sp, lr}
51400ea4:	0000000a 	andeq	r0, r0, sl
51400ea8:	41545320 	cmpmi	r4, r0, lsr #6
51400eac:	5241444e 	subpl	r4, r1, #1308622848	; 0x4e000000
51400eb0:	4c435f44 	mcrrmi	15, 4, r5, r3, cr4
51400eb4:	5f524145 	svcpl	0x00524145
51400eb8:	54414546 	strplb	r4, [r1], #-1350
51400ebc:	20455255 	subcs	r5, r5, r5, asr r2
51400ec0:	0000000a 	andeq	r0, r0, sl
51400ec4:	4e415453 	mcrmi	4, 2, r5, cr1, cr3, {2}
51400ec8:	44524144 	ldrmib	r4, [r2], #-324
51400ecc:	5445535f 	strplb	r5, [r5], #-863
51400ed0:	4145465f 	cmpmi	r5, pc, asr r6
51400ed4:	45525554 	ldrmib	r5, [r2, #-1364]
51400ed8:	00000a20 	andeq	r0, r0, r0, lsr #20
51400edc:	4e415453 	mcrmi	4, 2, r5, cr1, cr3, {2}
51400ee0:	44524144 	ldrmib	r4, [r2], #-324
51400ee4:	5445475f 	strplb	r4, [r5], #-1887
51400ee8:	4154535f 	cmpmi	r4, pc, asr r3
51400eec:	20535554 	subcss	r5, r3, r4, asr r5
51400ef0:	0000000a 	andeq	r0, r0, sl
51400ef4:	514447e2 	smlalttpl	r4, r4, r2, r7
51400ef8:	514447e3 	smlalttpl	r4, r4, r3, r7
51400efc:	514447e4 	smlalttpl	r4, r4, r4, r7
51400f00:	514447e1 	smlalttpl	r4, r4, r1, r7
51400f04:	4e415453 	mcrmi	4, 2, r5, cr1, cr3, {2}
51400f08:	44524144 	ldrmib	r4, [r2], #-324
51400f0c:	5445475f 	strplb	r4, [r5], #-1887
51400f10:	544e495f 	strplb	r4, [lr], #-2399
51400f14:	41465245 	cmpmi	r6, r5, asr #4
51400f18:	000a4543 	andeq	r4, sl, r3, asr #10
51400f1c:	41545320 	cmpmi	r4, r0, lsr #6
51400f20:	5241444e 	subpl	r4, r1, #1308622848	; 0x4e000000
51400f24:	59535f44 	ldmpldb	r3, {r2, r6, r8, r9, sl, fp, ip, lr}^
51400f28:	5f48434e 	svcpl	0x0048434e
51400f2c:	4d415246 	sfmmi	f5, 2, [r1, #-280]
51400f30:	000a2045 	andeq	r2, sl, r5, asr #32
51400f34:	41545320 	cmpmi	r4, r0, lsr #6
51400f38:	5241444e 	subpl	r4, r1, #1308622848	; 0x4e000000
51400f3c:	45535f44 	ldrmib	r5, [r3, #-3908]
51400f40:	494c5f54 	stmmidb	ip, {r2, r4, r6, r8, r9, sl, fp, ip, lr}^
51400f44:	435f454e 	cmpmi	pc, #327155712	; 0x13800000
51400f48:	4e49444f 	cdpmi	4, 4, cr4, cr9, cr15, {2}
51400f4c:	000a2047 	andeq	r2, sl, r7, asr #32
51400f50:	51444800 	cmppl	r4, r0, lsl #16
51400f54:	40404020 	submi	r4, r0, r0, lsr #32
51400f58:	0a204040 	beq	51c11060 <__oldboot_ram_start+0x811060>
51400f5c:	00000000 	andeq	r0, r0, r0
51400f60:	e51f16c4 	ldr	r1, [pc, #-1732]	; 514008a4 <__oldboot_ram_start+0x8a4>
51400f64:	e51f2aec 	ldr	r2, [pc, #-2796]	; 51400480 <__oldboot_ram_start+0x480>
51400f68:	e5920008 	ldr	r0, [r2, #8]
51400f6c:	e3500001 	cmp	r0, #1	; 0x1
51400f70:	1a000001 	bne	51400f7c <__oldboot_ram_start+0xf7c>
51400f74:	e3a00040 	mov	r0, #64	; 0x40
51400f78:	ea000000 	b	51400f80 <__oldboot_ram_start+0xf80>
51400f7c:	e3a00040 	mov	r0, #64	; 0x40
51400f80:	e51f3ae0 	ldr	r3, [pc, #-2784]	; 514004a8 <__oldboot_ram_start+0x4a8>
51400f84:	e5823070 	str	r3, [r2, #112]
51400f88:	e5820068 	str	r0, [r2, #104]
51400f8c:	e3a00000 	mov	r0, #0	; 0x0
51400f90:	e5810000 	str	r0, [r1]
51400f94:	e582006c 	str	r0, [r2, #108]
51400f98:	e2430c05 	sub	r0, r3, #1280	; 0x500
51400f9c:	e59f1324 	ldr	r1, [pc, #804]	; 514012c8 <__oldboot_ram_start+0x12c8>
51400fa0:	e5801010 	str	r1, [r0, #16]
51400fa4:	e3a01321 	mov	r1, #-2080374784	; 0x84000000
51400fa8:	e5801000 	str	r1, [r0]
51400fac:	e5920008 	ldr	r0, [r2, #8]
51400fb0:	e51f2b58 	ldr	r2, [pc, #-2904]	; 51400460 <__oldboot_ram_start+0x460>
51400fb4:	e3500000 	cmp	r0, #0	; 0x0
51400fb8:	1a000005 	bne	51400fd4 <__oldboot_ram_start+0xfd4>
51400fbc:	e5921064 	ldr	r1, [r2, #100]
51400fc0:	e3a00c02 	mov	r0, #512	; 0x200
51400fc4:	e1c100b4 	strh	r0, [r1, #4]
51400fc8:	e5921068 	ldr	r1, [r2, #104]
51400fcc:	e1c100b4 	strh	r0, [r1, #4]
51400fd0:	e12fff1e 	bx	lr
51400fd4:	e5921064 	ldr	r1, [r2, #100]
51400fd8:	e3a00040 	mov	r0, #64	; 0x40
51400fdc:	e1c100b4 	strh	r0, [r1, #4]
51400fe0:	e5921068 	ldr	r1, [r2, #104]
51400fe4:	e1c100b4 	strh	r0, [r1, #4]
51400fe8:	eafffff8 	b	51400fd0 <__oldboot_ram_start+0xfd0>
51400fec:	e92d4070 	stmdb	sp!, {r4, r5, r6, lr}
51400ff0:	e3a04000 	mov	r4, #0	; 0x0
51400ff4:	e51f5b7c 	ldr	r5, [pc, #-2940]	; 51400480 <__oldboot_ram_start+0x480>
51400ff8:	e0840084 	add	r0, r4, r4, lsl #1
51400ffc:	e3a01030 	mov	r1, #48	; 0x30
51401000:	e0850200 	add	r0, r5, r0, lsl #4
51401004:	e280005c 	add	r0, r0, #92	; 0x5c
51401008:	eb00f845 	bl	5143f124 <__oldboot_ram_start+0x3f124>
5140100c:	e2844001 	add	r4, r4, #1	; 0x1
51401010:	e3540010 	cmp	r4, #16	; 0x10
51401014:	3afffff7 	bcc	51400ff8 <__oldboot_ram_start+0xff8>
51401018:	e3a00000 	mov	r0, #0	; 0x0
5140101c:	e1c500b4 	strh	r0, [r5, #4]
51401020:	e1c500b0 	strh	r0, [r5]
51401024:	e3a03001 	mov	r3, #1	; 0x1
51401028:	e1c530b2 	strh	r3, [r5, #2]
5140102c:	e3a0c31f 	mov	ip, #2080374784	; 0x7c000000
51401030:	e3a00701 	mov	r0, #262144	; 0x40000
51401034:	e58c0800 	str	r0, [ip, #2048]
51401038:	e59c0804 	ldr	r0, [ip, #2052]
5140103c:	e3c00070 	bic	r0, r0, #112	; 0x70
51401040:	e58c0804 	str	r0, [ip, #2052]
51401044:	e28c1c09 	add	r1, ip, #2304	; 0x900
51401048:	e3a00000 	mov	r0, #0	; 0x0
5140104c:	e7912280 	ldr	r2, [r1, r0, lsl #5]
51401050:	e3822302 	orr	r2, r2, #134217728	; 0x8000000
51401054:	e7812280 	str	r2, [r1, r0, lsl #5]
51401058:	e2800001 	add	r0, r0, #1	; 0x1
5140105c:	e3500010 	cmp	r0, #16	; 0x10
51401060:	3afffff9 	bcc	5140104c <__oldboot_ram_start+0x104c>
51401064:	e51f1bc0 	ldr	r1, [pc, #-3008]	; 514004ac <__oldboot_ram_start+0x4ac>
51401068:	e3a00000 	mov	r0, #0	; 0x0
5140106c:	e7912280 	ldr	r2, [r1, r0, lsl #5]
51401070:	e3822302 	orr	r2, r2, #134217728	; 0x8000000
51401074:	e7812280 	str	r2, [r1, r0, lsl #5]
51401078:	e2800001 	add	r0, r0, #1	; 0x1
5140107c:	e3500010 	cmp	r0, #16	; 0x10
51401080:	3afffff9 	bcc	5140106c <__oldboot_ram_start+0x106c>
51401084:	e58c3008 	str	r3, [ip, #8]
51401088:	e59f023c 	ldr	r0, [pc, #572]	; 514012cc <__oldboot_ram_start+0x12cc>
5140108c:	e58c081c 	str	r0, [ip, #2076]
51401090:	e3a0000d 	mov	r0, #13	; 0xd
51401094:	e58c0814 	str	r0, [ip, #2068]
51401098:	e3a0001d 	mov	r0, #29	; 0x1d
5140109c:	e58c0810 	str	r0, [ip, #2064]
514010a0:	e3a00c02 	mov	r0, #512	; 0x200
514010a4:	e58c0024 	str	r0, [ip, #36]
514010a8:	e1800800 	orr	r0, r0, r0, lsl #16
514010ac:	e58c0028 	str	r0, [ip, #40]
514010b0:	e59c0e00 	ldr	r0, [ip, #3584]
514010b4:	e3c00001 	bic	r0, r0, #1	; 0x1
514010b8:	e58c0e00 	str	r0, [ip, #3584]
514010bc:	e3a00030 	mov	r0, #48	; 0x30
514010c0:	e58c0010 	str	r0, [ip, #16]
514010c4:	ebfffcf9 	bl	514004b0 <__oldboot_ram_start+0x4b0>
514010c8:	e8bd4070 	ldmia	sp!, {r4, r5, r6, lr}
514010cc:	e3a00002 	mov	r0, #2	; 0x2
514010d0:	eafffd28 	b	51400578 <__oldboot_ram_start+0x578>
514010d4:	e92d41f0 	stmdb	sp!, {r4, r5, r6, r7, r8, lr}
514010d8:	e3a0531f 	mov	r5, #2080374784	; 0x7c000000
514010dc:	e5954014 	ldr	r4, [r5, #20]
514010e0:	e5854014 	str	r4, [r5, #20]
514010e4:	e3140a01 	tst	r4, #4096	; 0x1000
514010e8:	0a000003 	beq	514010fc <__oldboot_ram_start+0x10fc>
514010ec:	e28f1f77 	add	r1, pc, #476	; 0x1dc
514010f0:	e3a00064 	mov	r0, #100	; 0x64
514010f4:	eb00089d 	bl	51403370 <__oldboot_ram_start+0x3370>
514010f8:	ebffffbb 	bl	51400fec <__oldboot_ram_start+0xfec>
514010fc:	e51f7c84 	ldr	r7, [pc, #-3204]	; 51400480 <__oldboot_ram_start+0x480>
51401100:	e3140a02 	tst	r4, #8192	; 0x2000
51401104:	e3a08001 	mov	r8, #1	; 0x1
51401108:	0a00000d 	beq	51401144 <__oldboot_ram_start+0x1144>
5140110c:	e28f1f73 	add	r1, pc, #460	; 0x1cc
51401110:	e3a00064 	mov	r0, #100	; 0x64
51401114:	eb000895 	bl	51403370 <__oldboot_ram_start+0x3370>
51401118:	e5950808 	ldr	r0, [r5, #2056]
5140111c:	e3100006 	tst	r0, #6	; 0x6
51401120:	1a000002 	bne	51401130 <__oldboot_ram_start+0x1130>
51401124:	e3a00000 	mov	r0, #0	; 0x0
51401128:	e5870008 	str	r0, [r7, #8]
5140112c:	ea000003 	b	51401140 <__oldboot_ram_start+0x1140>
51401130:	e2000006 	and	r0, r0, #6	; 0x6
51401134:	e3500002 	cmp	r0, #2	; 0x2
51401138:	1a000000 	bne	51401140 <__oldboot_ram_start+0x1140>
5140113c:	e5878008 	str	r8, [r7, #8]
51401140:	ebffff86 	bl	51400f60 <__oldboot_ram_start+0xf60>
51401144:	e3140102 	tst	r4, #-2147483648	; 0x80000000
51401148:	0a000005 	beq	51401164 <__oldboot_ram_start+0x1164>
5140114c:	e28f1f67 	add	r1, pc, #412	; 0x19c
51401150:	e3a00064 	mov	r0, #100	; 0x64
51401154:	eb000885 	bl	51403370 <__oldboot_ram_start+0x3370>
51401158:	e5950e00 	ldr	r0, [r5, #3584]
5140115c:	e3c00001 	bic	r0, r0, #1	; 0x1
51401160:	e5850e00 	str	r0, [r5, #3584]
51401164:	e3140b02 	tst	r4, #2048	; 0x800
51401168:	0a000005 	beq	51401184 <__oldboot_ram_start+0x1184>
5140116c:	e28f1f63 	add	r1, pc, #396	; 0x18c
51401170:	e3a00064 	mov	r0, #100	; 0x64
51401174:	eb00087d 	bl	51403370 <__oldboot_ram_start+0x3370>
51401178:	e5950e00 	ldr	r0, [r5, #3584]
5140117c:	e3800001 	orr	r0, r0, #1	; 0x1
51401180:	e5850e00 	str	r0, [r5, #3584]
51401184:	e3140010 	tst	r4, #16	; 0x10
51401188:	0a000021 	beq	51401214 <__oldboot_ram_start+0x1214>
5140118c:	e28f1f5f 	add	r1, pc, #380	; 0x17c
51401190:	e3a00064 	mov	r0, #100	; 0x64
51401194:	eb000875 	bl	51403370 <__oldboot_ram_start+0x3370>
51401198:	e5956020 	ldr	r6, [r5, #32]
5140119c:	e3a00703 	mov	r0, #786432	; 0xc0000
514011a0:	e1d00006 	bics	r0, r0, r6
514011a4:	1a000004 	bne	514011bc <__oldboot_ram_start+0x11bc>
514011a8:	e1d700b0 	ldrh	r0, [r7]
514011ac:	e3500000 	cmp	r0, #0	; 0x0
514011b0:	1a000017 	bne	51401214 <__oldboot_ram_start+0x1214>
514011b4:	ebfffdc5 	bl	514008d0 <__oldboot_ram_start+0x8d0>
514011b8:	ea000015 	b	51401214 <__oldboot_ram_start+0x1214>
514011bc:	e3160701 	tst	r6, #262144	; 0x40000
514011c0:	0a000013 	beq	51401214 <__oldboot_ram_start+0x1214>
514011c4:	e316000f 	tst	r6, #15	; 0xf
514011c8:	1a000008 	bne	514011f0 <__oldboot_ram_start+0x11f0>
514011cc:	e1a00886 	mov	r0, r6, lsl #17
514011d0:	e1b00aa0 	movs	r0, r0, lsr #21
514011d4:	0a000005 	beq	514011f0 <__oldboot_ram_start+0x11f0>
514011d8:	e1d700b2 	ldrh	r0, [r7, #2]
514011dc:	e3500000 	cmp	r0, #0	; 0x0
514011e0:	1a000002 	bne	514011f0 <__oldboot_ram_start+0x11f0>
514011e4:	e1a00886 	mov	r0, r6, lsl #17
514011e8:	e1a00aa0 	mov	r0, r0, lsr #21
514011ec:	ebfffcf3 	bl	514005c0 <__oldboot_ram_start+0x5c0>
514011f0:	e316000f 	tst	r6, #15	; 0xf
514011f4:	0a000006 	beq	51401214 <__oldboot_ram_start+0x1214>
514011f8:	e1a00886 	mov	r0, r6, lsl #17
514011fc:	e1b00aa0 	movs	r0, r0, lsr #21
51401200:	0a000003 	beq	51401214 <__oldboot_ram_start+0x1214>
51401204:	e1a00886 	mov	r0, r6, lsl #17
51401208:	e1a01aa0 	mov	r1, r0, lsr #21
5140120c:	e206000f 	and	r0, r6, #15	; 0xf
51401210:	ebfffd51 	bl	5140075c <__oldboot_ram_start+0x75c>
51401214:	e51f7dbc 	ldr	r7, [pc, #-3516]	; 51400460 <__oldboot_ram_start+0x460>
51401218:	e3140701 	tst	r4, #262144	; 0x40000
5140121c:	0a000011 	beq	51401268 <__oldboot_ram_start+0x1268>
51401220:	e28f1f41 	add	r1, pc, #260	; 0x104
51401224:	e3a00064 	mov	r0, #100	; 0x64
51401228:	eb000850 	bl	51403370 <__oldboot_ram_start+0x3370>
5140122c:	e5956818 	ldr	r6, [r5, #2072]
51401230:	e3160001 	tst	r6, #1	; 0x1
51401234:	0a000001 	beq	51401240 <__oldboot_ram_start+0x1240>
51401238:	ebfffd23 	bl	514006cc <__oldboot_ram_start+0x6cc>
5140123c:	ea000009 	b	51401268 <__oldboot_ram_start+0x1268>
51401240:	e5878044 	str	r8, [r7, #68]
51401244:	e5970044 	ldr	r0, [r7, #68]
51401248:	e1160018 	tst	r6, r8, lsl r0
5140124c:	0a000000 	beq	51401254 <__oldboot_ram_start+0x1254>
51401250:	ebfffcf1 	bl	5140061c <__oldboot_ram_start+0x61c>
51401254:	e5970044 	ldr	r0, [r7, #68]
51401258:	e2800001 	add	r0, r0, #1	; 0x1
5140125c:	e5870044 	str	r0, [r7, #68]
51401260:	e3500010 	cmp	r0, #16	; 0x10
51401264:	3afffff6 	bcc	51401244 <__oldboot_ram_start+0x1244>
51401268:	e3140702 	tst	r4, #524288	; 0x80000
5140126c:	0a000014 	beq	514012c4 <__oldboot_ram_start+0x12c4>
51401270:	e28f10c4 	add	r1, pc, #196	; 0xc4
51401274:	e3a00064 	mov	r0, #100	; 0x64
51401278:	eb00083c 	bl	51403370 <__oldboot_ram_start+0x3370>
5140127c:	e5953818 	ldr	r3, [r5, #2072]
51401280:	e3130801 	tst	r3, #65536	; 0x10000
51401284:	0a000002 	beq	51401294 <__oldboot_ram_start+0x1294>
51401288:	e8bd41f0 	ldmia	sp!, {r4, r5, r6, r7, r8, lr}
5140128c:	e3a00000 	mov	r0, #0	; 0x0
51401290:	eafffcca 	b	514005c0 <__oldboot_ram_start+0x5c0>
51401294:	e1a04007 	mov	r4, r7
51401298:	e5878044 	str	r8, [r7, #68]
5140129c:	e5940044 	ldr	r0, [r4, #68]
514012a0:	e2801010 	add	r1, r0, #16	; 0x10
514012a4:	e1130118 	tst	r3, r8, lsl r1
514012a8:	0a000000 	beq	514012b0 <__oldboot_ram_start+0x12b0>
514012ac:	ebfffcb6 	bl	5140058c <__oldboot_ram_start+0x58c>
514012b0:	e5940044 	ldr	r0, [r4, #68]
514012b4:	e2800001 	add	r0, r0, #1	; 0x1
514012b8:	e5840044 	str	r0, [r4, #68]
514012bc:	e3500010 	cmp	r0, #16	; 0x10
514012c0:	3afffff5 	bcc	5140129c <__oldboot_ram_start+0x129c>
514012c4:	e8bd81f0 	ldmia	sp!, {r4, r5, r6, r7, r8, pc}
514012c8:	60080040 	andvs	r0, r8, r0, asr #32
514012cc:	00010001 	andeq	r0, r1, r1
514012d0:	544e4920 	strplb	r4, [lr], #-2336
514012d4:	5345525f 	movtpl	r5, #21087	; 0x525f
514012d8:	0a205445 	beq	51c163f4 <__oldboot_ram_start+0x8163f4>
514012dc:	00000000 	andeq	r0, r0, r0
514012e0:	544e4920 	strplb	r4, [lr], #-2336
514012e4:	554e455f 	strplb	r4, [lr, #-1375]
514012e8:	4e4f444d 	cdpmi	4, 4, cr4, cr15, cr13, {2}
514012ec:	000a2045 	andeq	r2, sl, r5, asr #32
514012f0:	544e4920 	strplb	r4, [lr], #-2336
514012f4:	5345525f 	movtpl	r5, #21087	; 0x525f
514012f8:	20454d55 	subcs	r4, r5, r5, asr sp
514012fc:	0000000a 	andeq	r0, r0, sl
51401300:	544e4920 	strplb	r4, [lr], #-2336
51401304:	5355535f 	cmppl	r5, #2080374785	; 0x7c000001
51401308:	444e4550 	strmib	r4, [lr], #-1360
5140130c:	00000a20 	andeq	r0, r0, r0, lsr #20
51401310:	544e4920 	strplb	r4, [lr], #-2336
51401314:	5f58525f 	svcpl	0x0058525f
51401318:	4f464946 	svcmi	0x00464946
5140131c:	544f4e5f 	strplb	r4, [pc], #3679	; 51401324 <__oldboot_ram_start+0x1324>
51401320:	504d455f 	subpl	r4, sp, pc, asr r5
51401324:	0a205954 	beq	51c1787c <__oldboot_ram_start+0x81787c>
51401328:	00000000 	andeq	r0, r0, r0
5140132c:	544e4920 	strplb	r4, [lr], #-2336
51401330:	5f4e495f 	svcpl	0x004e495f
51401334:	0a205045 	beq	51c15450 <__oldboot_ram_start+0x815450>
51401338:	00000000 	andeq	r0, r0, r0
5140133c:	544e4920 	strplb	r4, [lr], #-2336
51401340:	54554f5f 	ldrplb	r4, [r5], #-3935
51401344:	2050455f 	subcss	r4, r0, pc, asr r5
51401348:	0000000a 	andeq	r0, r0, sl
5140134c:	e92d41f0 	stmdb	sp!, {r4, r5, r6, r7, r8, lr}
51401350:	e1a04000 	mov	r4, r0
51401354:	e51f0edc 	ldr	r0, [pc, #-3804]	; 51400480 <__oldboot_ram_start+0x480>
51401358:	e0841084 	add	r1, r4, r4, lsl #1
5140135c:	e0807201 	add	r7, r0, r1, lsl #4
51401360:	e2876080 	add	r6, r7, #128	; 0x80
51401364:	e51f5ac8 	ldr	r5, [pc, #-2760]	; 514008a4 <__oldboot_ram_start+0x8a4>
51401368:	e1a02004 	mov	r2, r4
5140136c:	e28f1e13 	add	r1, pc, #304	; 0x130
51401370:	e3a0000a 	mov	r0, #10	; 0xa
51401374:	eb0007fd 	bl	51403370 <__oldboot_ram_start+0x3370>
51401378:	e5971068 	ldr	r1, [r7, #104]
5140137c:	e5960004 	ldr	r0, [r6, #4]
51401380:	eb00fad8 	bl	5143fee8 <__oldboot_ram_start+0x3fee8>
51401384:	e3510000 	cmp	r1, #0	; 0x0
51401388:	0a000001 	beq	51401394 <__oldboot_ram_start+0x1394>
5140138c:	e3a01001 	mov	r1, #1	; 0x1
51401390:	ea000000 	b	51401398 <__oldboot_ram_start+0x1398>
51401394:	e3a01000 	mov	r1, #0	; 0x0
51401398:	e0811000 	add	r1, r1, r0
5140139c:	e0850284 	add	r0, r5, r4, lsl #5
514013a0:	e3e02000 	mvn	r2, #0	; 0x0
514013a4:	e5802008 	str	r2, [r0, #8]
514013a8:	e5962004 	ldr	r2, [r6, #4]
514013ac:	e1821981 	orr	r1, r2, r1, lsl #19
514013b0:	e5801010 	str	r1, [r0, #16]
514013b4:	e7950284 	ldr	r0, [r5, r4, lsl #5]
514013b8:	e3800321 	orr	r0, r0, #-2080374784	; 0x84000000
514013bc:	e7850284 	str	r0, [r5, r4, lsl #5]
514013c0:	e8bd81f0 	ldmia	sp!, {r4, r5, r6, r7, r8, pc}
514013c4:	e92d4070 	stmdb	sp!, {r4, r5, r6, lr}
514013c8:	e1a05000 	mov	r5, r0
514013cc:	e1a06001 	mov	r6, r1
514013d0:	e51f0f58 	ldr	r0, [pc, #-3928]	; 51400480 <__oldboot_ram_start+0x480>
514013d4:	e1d000b4 	ldrh	r0, [r0, #4]
514013d8:	e3500000 	cmp	r0, #0	; 0x0
514013dc:	0afffffd 	beq	514013d8 <__oldboot_ram_start+0x13d8>
514013e0:	e1a03005 	mov	r3, r5
514013e4:	e1a02005 	mov	r2, r5
514013e8:	e28f10d0 	add	r1, pc, #208	; 0xd0
514013ec:	e3a0000a 	mov	r0, #10	; 0xa
514013f0:	eb0007de 	bl	51403370 <__oldboot_ram_start+0x3370>
514013f4:	e51f4f9c 	ldr	r4, [pc, #-3996]	; 51400460 <__oldboot_ram_start+0x460>
514013f8:	e594104c 	ldr	r1, [r4, #76]
514013fc:	e5942004 	ldr	r2, [r4, #4]
51401400:	e0810005 	add	r0, r1, r5
51401404:	e1500002 	cmp	r0, r2
51401408:	8afffffd 	bhi	51401404 <__oldboot_ram_start+0x1404>
5140140c:	e1a02005 	mov	r2, r5
51401410:	e1a00006 	mov	r0, r6
51401414:	eb00f769 	bl	5143f1c0 <__oldboot_ram_start+0x3f1c0>
51401418:	e594004c 	ldr	r0, [r4, #76]
5140141c:	e3a020ff 	mov	r2, #255	; 0xff
51401420:	e1a01005 	mov	r1, r5
51401424:	eb00f71f 	bl	5143f0a8 <__oldboot_ram_start+0x3f0a8>
51401428:	e594004c 	ldr	r0, [r4, #76]
5140142c:	e0800005 	add	r0, r0, r5
51401430:	e584004c 	str	r0, [r4, #76]
51401434:	e3a00001 	mov	r0, #1	; 0x1
51401438:	e8bd8070 	ldmia	sp!, {r4, r5, r6, pc}
5140143c:	e92d4010 	stmdb	sp!, {r4, lr}
51401440:	e59f2090 	ldr	r2, [pc, #144]	; 514014d8 <__oldboot_ram_start+0x14d8>
51401444:	e5821000 	str	r1, [r2]
51401448:	e5820004 	str	r0, [r2, #4]
5140144c:	e1a02000 	mov	r2, r0
51401450:	e3a0000a 	mov	r0, #10	; 0xa
51401454:	e28f1080 	add	r1, pc, #128	; 0x80
51401458:	eb0007c4 	bl	51403370 <__oldboot_ram_start+0x3370>
5140145c:	e3a00002 	mov	r0, #2	; 0x2
51401460:	ebffffb9 	bl	5140134c <__oldboot_ram_start+0x134c>
51401464:	e3a00001 	mov	r0, #1	; 0x1
51401468:	e8bd8010 	ldmia	sp!, {r4, pc}
5140146c:	e3a0131f 	mov	r1, #2080374784	; 0x7c000000
51401470:	e5910804 	ldr	r0, [r1, #2052]
51401474:	e3800002 	orr	r0, r0, #2	; 0x2
51401478:	e5810804 	str	r0, [r1, #2052]
5140147c:	e12fff1e 	bx	lr
51401480:	e59f1068 	ldr	r1, [pc, #104]	; 514014f0 <__oldboot_ram_start+0x14f0>
51401484:	e5910004 	ldr	r0, [r1, #4]
51401488:	e3800040 	orr	r0, r0, #64	; 0x40
5140148c:	e5810004 	str	r0, [r1, #4]
51401490:	e12fff1e 	bx	lr
51401494:	e3a00001 	mov	r0, #1	; 0x1
51401498:	e12fff1e 	bx	lr
5140149c:	e3a00001 	mov	r0, #1	; 0x1
514014a0:	e12fff1e 	bx	lr
514014a4:	54435748 	strplb	r5, [r3], #-1864
514014a8:	505f4c52 	subpls	r4, pc, r2, asr ip
514014ac:	65636f72 	strvsb	r6, [r3, #-3954]!
514014b0:	495f7373 	ldmmidb	pc, {r0, r1, r4, r5, r6, r8, r9, ip, sp, lr}^
514014b4:	74535f4e 	ldrvcb	r5, [r3], #-3918
514014b8:	20747261 	rsbcss	r7, r4, r1, ror #4
514014bc:	000a6425 	andeq	r6, sl, r5, lsr #8
514014c0:	6f6f6255 	svcvs	0x006f6255
514014c4:	61655274 	smcvs	21796
514014c8:	74614464 	strvcbt	r4, [r1], #-1124
514014cc:	78302061 	ldmvcda	r0!, {r0, r5, r6, sp}
514014d0:	25207825 	strcs	r7, [r0, #-2085]!
514014d4:	000a646c 	andeq	r6, sl, ip, ror #8
514014d8:	51446e80 	smlalbbpl	r6, r4, r0, lr
514014dc:	6f6f6255 	svcvs	0x006f6255
514014e0:	69725774 	ldmvsdb	r2!, {r2, r4, r5, r6, r8, r9, sl, ip, lr}^
514014e4:	61446574 	cmpvs	r4, r4, ror r5
514014e8:	25206174 	strcs	r6, [r0, #-372]!
514014ec:	000a2064 	andeq	r2, sl, r4, rrx
514014f0:	7c100000 	ldcvc	0, cr0, [r0], {0}
514014f4:	e59f1390 	ldr	r1, [pc, #912]	; 5140188c <__oldboot_ram_start+0x188c>
514014f8:	e3500020 	cmp	r0, #32	; 0x20
514014fc:	e3a02001 	mov	r2, #1	; 0x1
51401500:	2a000003 	bcs	51401514 <__oldboot_ram_start+0x1514>
51401504:	e5911000 	ldr	r1, [r1]
51401508:	e1a00012 	mov	r0, r2, lsl r0
5140150c:	e5810010 	str	r0, [r1, #16]
51401510:	e12fff1e 	bx	lr
51401514:	e5911004 	ldr	r1, [r1, #4]
51401518:	e2400020 	sub	r0, r0, #32	; 0x20
5140151c:	e1a00012 	mov	r0, r2, lsl r0
51401520:	e5810010 	str	r0, [r1, #16]
51401524:	eafffff9 	b	51401510 <__oldboot_ram_start+0x1510>
51401528:	e59f135c 	ldr	r1, [pc, #860]	; 5140188c <__oldboot_ram_start+0x188c>
5140152c:	e3500020 	cmp	r0, #32	; 0x20
51401530:	e3a02001 	mov	r2, #1	; 0x1
51401534:	2a000003 	bcs	51401548 <__oldboot_ram_start+0x1548>
51401538:	e5911000 	ldr	r1, [r1]
5140153c:	e1a00012 	mov	r0, r2, lsl r0
51401540:	e5810014 	str	r0, [r1, #20]
51401544:	e12fff1e 	bx	lr
51401548:	e5911004 	ldr	r1, [r1, #4]
5140154c:	e2400020 	sub	r0, r0, #32	; 0x20
51401550:	e1a00012 	mov	r0, r2, lsl r0
51401554:	e5810014 	str	r0, [r1, #20]
51401558:	eafffff9 	b	51401544 <__oldboot_ram_start+0x1544>
5140155c:	e59f2328 	ldr	r2, [pc, #808]	; 5140188c <__oldboot_ram_start+0x188c>
51401560:	e3a00000 	mov	r0, #0	; 0x0
51401564:	e5921000 	ldr	r1, [r2]
51401568:	e5810f00 	str	r0, [r1, #3840]
5140156c:	e5921004 	ldr	r1, [r2, #4]
51401570:	e5810f00 	str	r0, [r1, #3840]
51401574:	e12fff1e 	bx	lr
51401578:	e59f230c 	ldr	r2, [pc, #780]	; 5140188c <__oldboot_ram_start+0x188c>
5140157c:	e3a01000 	mov	r1, #0	; 0x0
51401580:	e5920000 	ldr	r0, [r2]
51401584:	e5801100 	str	r1, [r0, #256]
51401588:	e3a01001 	mov	r1, #1	; 0x1
5140158c:	e5801104 	str	r1, [r0, #260]
51401590:	e3a01002 	mov	r1, #2	; 0x2
51401594:	e5801108 	str	r1, [r0, #264]
51401598:	e3a01003 	mov	r1, #3	; 0x3
5140159c:	e580110c 	str	r1, [r0, #268]
514015a0:	e3a01004 	mov	r1, #4	; 0x4
514015a4:	e5801110 	str	r1, [r0, #272]
514015a8:	e3a01005 	mov	r1, #5	; 0x5
514015ac:	e5801114 	str	r1, [r0, #276]
514015b0:	e3a01006 	mov	r1, #6	; 0x6
514015b4:	e5801118 	str	r1, [r0, #280]
514015b8:	e3a01007 	mov	r1, #7	; 0x7
514015bc:	e580111c 	str	r1, [r0, #284]
514015c0:	e3a01008 	mov	r1, #8	; 0x8
514015c4:	e5801120 	str	r1, [r0, #288]
514015c8:	e3a01009 	mov	r1, #9	; 0x9
514015cc:	e5801124 	str	r1, [r0, #292]
514015d0:	e3a0100a 	mov	r1, #10	; 0xa
514015d4:	e5801128 	str	r1, [r0, #296]
514015d8:	e3a0100b 	mov	r1, #11	; 0xb
514015dc:	e580112c 	str	r1, [r0, #300]
514015e0:	e3a0100c 	mov	r1, #12	; 0xc
514015e4:	e5801130 	str	r1, [r0, #304]
514015e8:	e3a0100d 	mov	r1, #13	; 0xd
514015ec:	e5801134 	str	r1, [r0, #308]
514015f0:	e3a0100e 	mov	r1, #14	; 0xe
514015f4:	e5801138 	str	r1, [r0, #312]
514015f8:	e3a0100f 	mov	r1, #15	; 0xf
514015fc:	e580113c 	str	r1, [r0, #316]
51401600:	e3a01010 	mov	r1, #16	; 0x10
51401604:	e5801140 	str	r1, [r0, #320]
51401608:	e3a01011 	mov	r1, #17	; 0x11
5140160c:	e5801144 	str	r1, [r0, #324]
51401610:	e3a01012 	mov	r1, #18	; 0x12
51401614:	e5801148 	str	r1, [r0, #328]
51401618:	e3a01013 	mov	r1, #19	; 0x13
5140161c:	e580114c 	str	r1, [r0, #332]
51401620:	e3a01014 	mov	r1, #20	; 0x14
51401624:	e5801150 	str	r1, [r0, #336]
51401628:	e3a01015 	mov	r1, #21	; 0x15
5140162c:	e5801154 	str	r1, [r0, #340]
51401630:	e3a01016 	mov	r1, #22	; 0x16
51401634:	e5801158 	str	r1, [r0, #344]
51401638:	e3a01017 	mov	r1, #23	; 0x17
5140163c:	e580115c 	str	r1, [r0, #348]
51401640:	e3a01018 	mov	r1, #24	; 0x18
51401644:	e5801160 	str	r1, [r0, #352]
51401648:	e3a01019 	mov	r1, #25	; 0x19
5140164c:	e5801164 	str	r1, [r0, #356]
51401650:	e3a0101a 	mov	r1, #26	; 0x1a
51401654:	e5801168 	str	r1, [r0, #360]
51401658:	e3a0101b 	mov	r1, #27	; 0x1b
5140165c:	e580116c 	str	r1, [r0, #364]
51401660:	e3a0101c 	mov	r1, #28	; 0x1c
51401664:	e5801170 	str	r1, [r0, #368]
51401668:	e3a0101d 	mov	r1, #29	; 0x1d
5140166c:	e5801174 	str	r1, [r0, #372]
51401670:	e3a0101e 	mov	r1, #30	; 0x1e
51401674:	e5801178 	str	r1, [r0, #376]
51401678:	e3a0101f 	mov	r1, #31	; 0x1f
5140167c:	e580117c 	str	r1, [r0, #380]
51401680:	e5921004 	ldr	r1, [r2, #4]
51401684:	e3a00020 	mov	r0, #32	; 0x20
51401688:	e5810100 	str	r0, [r1, #256]
5140168c:	e3a00021 	mov	r0, #33	; 0x21
51401690:	e5810104 	str	r0, [r1, #260]
51401694:	e3a00022 	mov	r0, #34	; 0x22
51401698:	e5810108 	str	r0, [r1, #264]
5140169c:	e3a00023 	mov	r0, #35	; 0x23
514016a0:	e581010c 	str	r0, [r1, #268]
514016a4:	e3a00024 	mov	r0, #36	; 0x24
514016a8:	e5810110 	str	r0, [r1, #272]
514016ac:	e3a00025 	mov	r0, #37	; 0x25
514016b0:	e5810114 	str	r0, [r1, #276]
514016b4:	e3a00026 	mov	r0, #38	; 0x26
514016b8:	e5810118 	str	r0, [r1, #280]
514016bc:	e3a00027 	mov	r0, #39	; 0x27
514016c0:	e581011c 	str	r0, [r1, #284]
514016c4:	e3a00028 	mov	r0, #40	; 0x28
514016c8:	e5810120 	str	r0, [r1, #288]
514016cc:	e3a00029 	mov	r0, #41	; 0x29
514016d0:	e5810124 	str	r0, [r1, #292]
514016d4:	e3a0002a 	mov	r0, #42	; 0x2a
514016d8:	e5810128 	str	r0, [r1, #296]
514016dc:	e3a0002b 	mov	r0, #43	; 0x2b
514016e0:	e581012c 	str	r0, [r1, #300]
514016e4:	e3a0002c 	mov	r0, #44	; 0x2c
514016e8:	e5810130 	str	r0, [r1, #304]
514016ec:	e3a0002d 	mov	r0, #45	; 0x2d
514016f0:	e5810134 	str	r0, [r1, #308]
514016f4:	e3a0002e 	mov	r0, #46	; 0x2e
514016f8:	e5810138 	str	r0, [r1, #312]
514016fc:	e3a0002f 	mov	r0, #47	; 0x2f
51401700:	e581013c 	str	r0, [r1, #316]
51401704:	e3a00030 	mov	r0, #48	; 0x30
51401708:	e5810140 	str	r0, [r1, #320]
5140170c:	e3a00031 	mov	r0, #49	; 0x31
51401710:	e5810144 	str	r0, [r1, #324]
51401714:	e3a00032 	mov	r0, #50	; 0x32
51401718:	e5810148 	str	r0, [r1, #328]
5140171c:	e3a00033 	mov	r0, #51	; 0x33
51401720:	e581014c 	str	r0, [r1, #332]
51401724:	e3a00034 	mov	r0, #52	; 0x34
51401728:	e5810150 	str	r0, [r1, #336]
5140172c:	e3a00035 	mov	r0, #53	; 0x35
51401730:	e5810154 	str	r0, [r1, #340]
51401734:	e3a00036 	mov	r0, #54	; 0x36
51401738:	e5810158 	str	r0, [r1, #344]
5140173c:	e3a00037 	mov	r0, #55	; 0x37
51401740:	e581015c 	str	r0, [r1, #348]
51401744:	e3a00038 	mov	r0, #56	; 0x38
51401748:	e5810160 	str	r0, [r1, #352]
5140174c:	e3a00039 	mov	r0, #57	; 0x39
51401750:	e5810164 	str	r0, [r1, #356]
51401754:	e3a0003a 	mov	r0, #58	; 0x3a
51401758:	e5810168 	str	r0, [r1, #360]
5140175c:	e3a0003b 	mov	r0, #59	; 0x3b
51401760:	e581016c 	str	r0, [r1, #364]
51401764:	e3a0003c 	mov	r0, #60	; 0x3c
51401768:	e5810170 	str	r0, [r1, #368]
5140176c:	e3a0003d 	mov	r0, #61	; 0x3d
51401770:	e5810174 	str	r0, [r1, #372]
51401774:	e3a0003e 	mov	r0, #62	; 0x3e
51401778:	e5810178 	str	r0, [r1, #376]
5140177c:	e3a0003f 	mov	r0, #63	; 0x3f
51401780:	e581017c 	str	r0, [r1, #380]
51401784:	e12fff1e 	bx	lr
51401788:	e92d4070 	stmdb	sp!, {r4, r5, r6, lr}
5140178c:	e3a00000 	mov	r0, #0	; 0x0
51401790:	e59f10f8 	ldr	r1, [pc, #248]	; 51401890 <__oldboot_ram_start+0x1890>
51401794:	e3a05000 	mov	r5, #0	; 0x0
51401798:	e7815100 	str	r5, [r1, r0, lsl #2]
5140179c:	e2800001 	add	r0, r0, #1	; 0x1
514017a0:	e3500040 	cmp	r0, #64	; 0x40
514017a4:	bafffffb 	blt	51401798 <__oldboot_ram_start+0x1798>
514017a8:	e59f40dc 	ldr	r4, [pc, #220]	; 5140188c <__oldboot_ram_start+0x188c>
514017ac:	e59f00e0 	ldr	r0, [pc, #224]	; 51401894 <__oldboot_ram_start+0x1894>
514017b0:	e5840000 	str	r0, [r4]
514017b4:	e2800601 	add	r0, r0, #1048576	; 0x100000
514017b8:	e5840004 	str	r0, [r4, #4]
514017bc:	eb00c8e8 	bl	51433b64 <__oldboot_ram_start+0x33b64>
514017c0:	eb00c8ef 	bl	51433b84 <__oldboot_ram_start+0x33b84>
514017c4:	eb00c8f6 	bl	51433ba4 <__oldboot_ram_start+0x33ba4>
514017c8:	e5940000 	ldr	r0, [r4]
514017cc:	e3e01000 	mvn	r1, #0	; 0x0
514017d0:	e5801014 	str	r1, [r0, #20]
514017d4:	e5942004 	ldr	r2, [r4, #4]
514017d8:	e5821014 	str	r1, [r2, #20]
514017dc:	e580101c 	str	r1, [r0, #28]
514017e0:	e582101c 	str	r1, [r2, #28]
514017e4:	e580500c 	str	r5, [r0, #12]
514017e8:	e582500c 	str	r5, [r2, #12]
514017ec:	e5805f00 	str	r5, [r0, #3840]
514017f0:	e5825f00 	str	r5, [r2, #3840]
514017f4:	ebffff5f 	bl	51401578 <__oldboot_ram_start+0x1578>
514017f8:	eb00c8dd 	bl	51433b74 <__oldboot_ram_start+0x33b74>
514017fc:	e3a0003a 	mov	r0, #58	; 0x3a
51401800:	ebffff3b 	bl	514014f4 <__oldboot_ram_start+0x14f4>
51401804:	e8bd4070 	ldmia	sp!, {r4, r5, r6, lr}
51401808:	e3a00000 	mov	r0, #0	; 0x0
5140180c:	eaffff38 	b	514014f4 <__oldboot_ram_start+0x14f4>
51401810:	e92d4010 	stmdb	sp!, {r4, lr}
51401814:	e59f1070 	ldr	r1, [pc, #112]	; 5140188c <__oldboot_ram_start+0x188c>
51401818:	e5910000 	ldr	r0, [r1]
5140181c:	e3500000 	cmp	r0, #0	; 0x0
51401820:	0a000015 	beq	5140187c <__oldboot_ram_start+0x187c>
51401824:	e5900f00 	ldr	r0, [r0, #3840]
51401828:	e5911004 	ldr	r1, [r1, #4]
5140182c:	e5911f00 	ldr	r1, [r1, #3840]
51401830:	e350003a 	cmp	r0, #58	; 0x3a
51401834:	1a000005 	bne	51401850 <__oldboot_ram_start+0x1850>
51401838:	e3a0003a 	mov	r0, #58	; 0x3a
5140183c:	ebffff39 	bl	51401528 <__oldboot_ram_start+0x1528>
51401840:	ebfffe23 	bl	514010d4 <__oldboot_ram_start+0x10d4>
51401844:	e3a0003a 	mov	r0, #58	; 0x3a
51401848:	ebffff29 	bl	514014f4 <__oldboot_ram_start+0x14f4>
5140184c:	ea000008 	b	51401874 <__oldboot_ram_start+0x1874>
51401850:	e59f1038 	ldr	r1, [pc, #56]	; 51401890 <__oldboot_ram_start+0x1890>
51401854:	e7911100 	ldr	r1, [r1, r0, lsl #2]
51401858:	e3510000 	cmp	r1, #0	; 0x0
5140185c:	0a000001 	beq	51401868 <__oldboot_ram_start+0x1868>
51401860:	e12fff31 	blx	r1
51401864:	ea000002 	b	51401874 <__oldboot_ram_start+0x1874>
51401868:	e1a01000 	mov	r1, r0
5140186c:	e28f0024 	add	r0, pc, #36	; 0x24
51401870:	eb00073b 	bl	51403564 <__oldboot_ram_start+0x3564>
51401874:	e8bd4010 	ldmia	sp!, {r4, lr}
51401878:	eaffff37 	b	5140155c <__oldboot_ram_start+0x155c>
5140187c:	e8bd8010 	ldmia	sp!, {r4, pc}
51401880:	e59f2008 	ldr	r2, [pc, #8]	; 51401890 <__oldboot_ram_start+0x1890>
51401884:	e7821100 	str	r1, [r2, r0, lsl #2]
51401888:	e12fff1e 	bx	lr
5140188c:	514449a0 	smlaltbpl	r4, r4, r0, r9
51401890:	514470fc 	strpld	r7, [r4, #-12]
51401894:	71200000 	teqvc	r0, r0
51401898:	4f4f425b 	svcmi	0x004f425b
5140189c:	455b5d54 	ldrmib	r5, [fp, #-3412]
514018a0:	205d7272 	subcss	r7, sp, r2, ror r2
514018a4:	6e6b6e55 	mcrvs	14, 3, r6, cr11, cr5, {2}
514018a8:	206e776f 	rsbcs	r7, lr, pc, ror #14
514018ac:	20515249 	subcss	r5, r1, r9, asr #4
514018b0:	29642528 	stmcsdb	r4!, {r3, r5, r8, sl, sp}^
514018b4:	000d0a20 	andeq	r0, sp, r0, lsr #20
514018b8:	e92d4010 	stmdb	sp!, {r4, lr}
514018bc:	e28f0f7e 	add	r0, pc, #504	; 0x1f8
514018c0:	eb000727 	bl	51403564 <__oldboot_ram_start+0x3564>
514018c4:	eafffffe 	b	514018c4 <__oldboot_ram_start+0x18c4>
514018c8:	e59f1200 	ldr	r1, [pc, #512]	; 51401ad0 <__oldboot_ram_start+0x1ad0>
514018cc:	e3a03000 	mov	r3, #0	; 0x0
514018d0:	e5912088 	ldr	r2, [r1, #136]
514018d4:	e591c088 	ldr	ip, [r1, #136]
514018d8:	e202200f 	and	r2, r2, #15	; 0xf
514018dc:	e1a0c22c 	mov	ip, ip, lsr #4
514018e0:	e08cc10c 	add	ip, ip, ip, lsl #2
514018e4:	e082208c 	add	r2, r2, ip, lsl #1
514018e8:	e2822e7d 	add	r2, r2, #2000	; 0x7d0
514018ec:	e1c020b0 	strh	r2, [r0]
514018f0:	e5912084 	ldr	r2, [r1, #132]
514018f4:	e591c084 	ldr	ip, [r1, #132]
514018f8:	e202200f 	and	r2, r2, #15	; 0xf
514018fc:	e1a0cd8c 	mov	ip, ip, lsl #27
51401900:	e1a0cfac 	mov	ip, ip, lsr #31
51401904:	e08cc10c 	add	ip, ip, ip, lsl #2
51401908:	e082208c 	add	r2, r2, ip, lsl #1
5140190c:	e1c020b2 	strh	r2, [r0, #2]
51401910:	e591207c 	ldr	r2, [r1, #124]
51401914:	e591c07c 	ldr	ip, [r1, #124]
51401918:	e202200f 	and	r2, r2, #15	; 0xf
5140191c:	e1a0cd0c 	mov	ip, ip, lsl #26
51401920:	e1a0cf2c 	mov	ip, ip, lsr #30
51401924:	e08cc10c 	add	ip, ip, ip, lsl #2
51401928:	e082208c 	add	r2, r2, ip, lsl #1
5140192c:	e1c020b6 	strh	r2, [r0, #6]
51401930:	e5912080 	ldr	r2, [r1, #128]
51401934:	e2422001 	sub	r2, r2, #1	; 0x1
51401938:	e1c020b4 	strh	r2, [r0, #4]
5140193c:	e5912078 	ldr	r2, [r1, #120]
51401940:	e591c078 	ldr	ip, [r1, #120]
51401944:	e202200f 	and	r2, r2, #15	; 0xf
51401948:	e1a0cd0c 	mov	ip, ip, lsl #26
5140194c:	e1a0cf2c 	mov	ip, ip, lsr #30
51401950:	e08cc10c 	add	ip, ip, ip, lsl #2
51401954:	e082208c 	add	r2, r2, ip, lsl #1
51401958:	e1c020b8 	strh	r2, [r0, #8]
5140195c:	e5912074 	ldr	r2, [r1, #116]
51401960:	e591c074 	ldr	ip, [r1, #116]
51401964:	e202200f 	and	r2, r2, #15	; 0xf
51401968:	e1a0cc8c 	mov	ip, ip, lsl #25
5140196c:	e1a0ceac 	mov	ip, ip, lsr #29
51401970:	e08cc10c 	add	ip, ip, ip, lsl #2
51401974:	e082208c 	add	r2, r2, ip, lsl #1
51401978:	e1c020ba 	strh	r2, [r0, #10]
5140197c:	e5912070 	ldr	r2, [r1, #112]
51401980:	e591c070 	ldr	ip, [r1, #112]
51401984:	e202200f 	and	r2, r2, #15	; 0xf
51401988:	e1a0cc8c 	mov	ip, ip, lsl #25
5140198c:	e1a0ceac 	mov	ip, ip, lsr #29
51401990:	e08cc10c 	add	ip, ip, ip, lsl #2
51401994:	e082208c 	add	r2, r2, ip, lsl #1
51401998:	e1c020bc 	strh	r2, [r0, #12]
5140199c:	e1c030be 	strh	r3, [r0, #14]
514019a0:	e3520000 	cmp	r2, #0	; 0x0
514019a4:	0affffc9 	beq	514018d0 <__oldboot_ram_start+0x18d0>
514019a8:	e3a00001 	mov	r0, #1	; 0x1
514019ac:	e12fff1e 	bx	lr
514019b0:	e92d400f 	stmdb	sp!, {r0, r1, r2, r3, lr}
514019b4:	e1a0000d 	mov	r0, sp
514019b8:	ebffffc2 	bl	514018c8 <__oldboot_ram_start+0x18c8>
514019bc:	e1dd00b2 	ldrh	r0, [sp, #2]
514019c0:	e1dd10b6 	ldrh	r1, [sp, #6]
514019c4:	e0600280 	rsb	r0, r0, r0, lsl #5
514019c8:	e0800001 	add	r0, r0, r1
514019cc:	e1dd10b8 	ldrh	r1, [sp, #8]
514019d0:	e0800080 	add	r0, r0, r0, lsl #1
514019d4:	e0810180 	add	r0, r1, r0, lsl #3
514019d8:	e1dd10ba 	ldrh	r1, [sp, #10]
514019dc:	e0600200 	rsb	r0, r0, r0, lsl #4
514019e0:	e0810100 	add	r0, r1, r0, lsl #2
514019e4:	e1dd10bc 	ldrh	r1, [sp, #12]
514019e8:	e0600200 	rsb	r0, r0, r0, lsl #4
514019ec:	e0810100 	add	r0, r1, r0, lsl #2
514019f0:	e8bd900e 	ldmia	sp!, {r1, r2, r3, ip, pc}
514019f4:	e92d4010 	stmdb	sp!, {r4, lr}
514019f8:	e1a04000 	mov	r4, r0
514019fc:	e3540000 	cmp	r4, #0	; 0x0
51401a00:	0a000001 	beq	51401a0c <__oldboot_ram_start+0x1a0c>
51401a04:	e28f10c8 	add	r1, pc, #200	; 0xc8
51401a08:	ea000000 	b	51401a10 <__oldboot_ram_start+0x1a10>
51401a0c:	e28f10c4 	add	r1, pc, #196	; 0xc4
51401a10:	e28f00c4 	add	r0, pc, #196	; 0xc4
51401a14:	eb0006d2 	bl	51403564 <__oldboot_ram_start+0x3564>
51401a18:	e3a01001 	mov	r1, #1	; 0x1
51401a1c:	e3a00073 	mov	r0, #115	; 0x73
51401a20:	eb00d994 	bl	51438078 <__oldboot_ram_start+0x38078>
51401a24:	e3540000 	cmp	r4, #0	; 0x0
51401a28:	0a000005 	beq	51401a44 <__oldboot_ram_start+0x1a44>
51401a2c:	e3a01001 	mov	r1, #1	; 0x1
51401a30:	e3a00073 	mov	r0, #115	; 0x73
51401a34:	eb00d9af 	bl	514380f8 <__oldboot_ram_start+0x380f8>
51401a38:	e8bd4010 	ldmia	sp!, {r4, lr}
51401a3c:	e3a00001 	mov	r0, #1	; 0x1
51401a40:	ea004f08 	b	51415668 <__oldboot_ram_start+0x15668>
51401a44:	e3a01000 	mov	r1, #0	; 0x0
51401a48:	e3a00073 	mov	r0, #115	; 0x73
51401a4c:	eb00d9a9 	bl	514380f8 <__oldboot_ram_start+0x380f8>
51401a50:	e8bd4010 	ldmia	sp!, {r4, lr}
51401a54:	e3a00000 	mov	r0, #0	; 0x0
51401a58:	ea004f02 	b	51415668 <__oldboot_ram_start+0x15668>
51401a5c:	e92d4010 	stmdb	sp!, {r4, lr}
51401a60:	e1a04000 	mov	r4, r0
51401a64:	e3540000 	cmp	r4, #0	; 0x0
51401a68:	0a000001 	beq	51401a74 <__oldboot_ram_start+0x1a74>
51401a6c:	e28f1060 	add	r1, pc, #96	; 0x60
51401a70:	ea000000 	b	51401a78 <__oldboot_ram_start+0x1a78>
51401a74:	e28f105c 	add	r1, pc, #92	; 0x5c
51401a78:	e28f0070 	add	r0, pc, #112	; 0x70
51401a7c:	eb0006b8 	bl	51403564 <__oldboot_ram_start+0x3564>
51401a80:	e3a01001 	mov	r1, #1	; 0x1
51401a84:	e3a000b4 	mov	r0, #180	; 0xb4
51401a88:	eb00d97a 	bl	51438078 <__oldboot_ram_start+0x38078>
51401a8c:	e3540000 	cmp	r4, #0	; 0x0
51401a90:	0a000005 	beq	51401aac <__oldboot_ram_start+0x1aac>
51401a94:	e28f0068 	add	r0, pc, #104	; 0x68
51401a98:	eb0006b1 	bl	51403564 <__oldboot_ram_start+0x3564>
51401a9c:	e8bd4010 	ldmia	sp!, {r4, lr}
51401aa0:	e3a01000 	mov	r1, #0	; 0x0
51401aa4:	e3a000b4 	mov	r0, #180	; 0xb4
51401aa8:	ea00d992 	b	514380f8 <__oldboot_ram_start+0x380f8>
51401aac:	e8bd4010 	ldmia	sp!, {r4, lr}
51401ab0:	e3a01001 	mov	r1, #1	; 0x1
51401ab4:	e3a000b4 	mov	r0, #180	; 0xb4
51401ab8:	ea00d98e 	b	514380f8 <__oldboot_ram_start+0x380f8>
51401abc:	6e697053 	mcrvs	0, 3, r7, cr9, cr3, {2}
51401ac0:	65726f46 	ldrvsb	r6, [r2, #-3910]!
51401ac4:	2e726576 	mrccs	5, 3, r6, cr2, cr6, {3}
51401ac8:	0a0d2e2e 	beq	5174d388 <__oldboot_ram_start+0x34d388>
51401acc:	00000000 	andeq	r0, r0, r0
51401ad0:	7e005000 	cdpvc	0, 0, cr5, cr0, cr0, {0}
51401ad4:	00005043 	andeq	r5, r0, r3, asr #32
51401ad8:	00005041 	andeq	r5, r0, r1, asr #32
51401adc:	53425355 	movtpl	r5, #9045	; 0x2355
51401ae0:	63746977 	cmnvs	r4, #1949696	; 0x1dc000
51401ae4:	203a2068 	eorcss	r2, sl, r8, rrx
51401ae8:	0a207325 	beq	51c1e784 <__oldboot_ram_start+0x81e784>
51401aec:	00000000 	andeq	r0, r0, r0
51401af0:	54524155 	ldrplb	r4, [r2], #-341
51401af4:	74697753 	strvcbt	r7, [r9], #-1875
51401af8:	3a206863 	bcc	51c1bc8c <__oldboot_ram_start+0x81bc8c>
51401afc:	20732520 	rsbcss	r2, r3, r0, lsr #10
51401b00:	0000000a 	andeq	r0, r0, sl
51401b04:	72726157 	rsbvcs	r6, r2, #-1073741803	; 0xc0000015
51401b08:	20676e69 	rsbcs	r6, r7, r9, ror #28
51401b0c:	5041203a 	subpl	r2, r1, sl, lsr r0
51401b10:	52415520 	subpl	r5, r1, #134217728	; 0x8000000
51401b14:	69642054 	stmvsdb	r4!, {r2, r4, r6, sp}^
51401b18:	6c626173 	stfvse	f6, [r2], #-460
51401b1c:	21212065 	teqcs	r1, r5, rrx
51401b20:	0a202021 	beq	51c09bac <__oldboot_ram_start+0x809bac>
51401b24:	00000000 	andeq	r0, r0, r0
51401b28:	e92d4010 	stmdb	sp!, {r4, lr}
51401b2c:	e24dd028 	sub	sp, sp, #40	; 0x28
51401b30:	eb004e0f 	bl	51415374 <__oldboot_ram_start+0x15374>
51401b34:	e5900030 	ldr	r0, [r0, #48]
51401b38:	e3500002 	cmp	r0, #2	; 0x2
51401b3c:	3a000004 	bcc	51401b54 <__oldboot_ram_start+0x1b54>
51401b40:	e3a01000 	mov	r1, #0	; 0x0
51401b44:	e3a000b7 	mov	r0, #183	; 0xb7
51401b48:	eb00d94a 	bl	51438078 <__oldboot_ram_start+0x38078>
51401b4c:	e3a000b7 	mov	r0, #183	; 0xb7
51401b50:	eb00d982 	bl	51438160 <__oldboot_ram_start+0x38160>
51401b54:	e3a01000 	mov	r1, #0	; 0x0
51401b58:	e3a00003 	mov	r0, #3	; 0x3
51401b5c:	eb00dc62 	bl	51438cec <__oldboot_ram_start+0x38cec>
51401b60:	e59f41dc 	ldr	r4, [pc, #476]	; 51401d44 <__oldboot_ram_start+0x1d44>
51401b64:	eb00f078 	bl	5143dd4c <__oldboot_ram_start+0x3dd4c>
51401b68:	e3a00000 	mov	r0, #0	; 0x0
51401b6c:	e58d0004 	str	r0, [sp, #4]
51401b70:	e28d0018 	add	r0, sp, #24	; 0x18
51401b74:	e3a01000 	mov	r1, #0	; 0x0
51401b78:	e3a03000 	mov	r3, #0	; 0x0
51401b7c:	e3a02000 	mov	r2, #0	; 0x0
51401b80:	e58d1014 	str	r1, [sp, #20]
51401b84:	e880000e 	stmia	r0, {r1, r2, r3}
51401b88:	e3a00006 	mov	r0, #6	; 0x6
51401b8c:	e58d3010 	str	r3, [sp, #16]
51401b90:	e3a03e32 	mov	r3, #800	; 0x320
51401b94:	e58d3000 	str	r3, [sp]
51401b98:	e58d1008 	str	r1, [sp, #8]
51401b9c:	e3a01e1e 	mov	r1, #480	; 0x1e0
51401ba0:	e3a03e1e 	mov	r3, #480	; 0x1e0
51401ba4:	e3a02e32 	mov	r2, #800	; 0x320
51401ba8:	e58d400c 	str	r4, [sp, #12]
51401bac:	eb00dfe8 	bl	51439b54 <__oldboot_ram_start+0x39b54>
51401bb0:	e3500000 	cmp	r0, #0	; 0x0
51401bb4:	0a000003 	beq	51401bc8 <__oldboot_ram_start+0x1bc8>
51401bb8:	e28f0f62 	add	r0, pc, #392	; 0x188
51401bbc:	eb000668 	bl	51403564 <__oldboot_ram_start+0x3564>
51401bc0:	e28dd028 	add	sp, sp, #40	; 0x28
51401bc4:	e8bd8010 	ldmia	sp!, {r4, pc}
51401bc8:	e3a01001 	mov	r1, #1	; 0x1
51401bcc:	e3a00000 	mov	r0, #0	; 0x0
51401bd0:	eb00ea84 	bl	5143c5e8 <__oldboot_ram_start+0x3c5e8>
51401bd4:	eafffff9 	b	51401bc0 <__oldboot_ram_start+0x1bc0>
51401bd8:	e92d4010 	stmdb	sp!, {r4, lr}
51401bdc:	eb00b828 	bl	5142fc84 <__oldboot_ram_start+0x2fc84>
51401be0:	eb00c1d9 	bl	5143234c <__oldboot_ram_start+0x3234c>
51401be4:	e3500000 	cmp	r0, #0	; 0x0
51401be8:	0a000003 	beq	51401bfc <__oldboot_ram_start+0x1bfc>
51401bec:	e28f0f5e 	add	r0, pc, #376	; 0x178
51401bf0:	eb00065b 	bl	51403564 <__oldboot_ram_start+0x3564>
51401bf4:	e3a00000 	mov	r0, #0	; 0x0
51401bf8:	e8bd8010 	ldmia	sp!, {r4, pc}
51401bfc:	e3a00000 	mov	r0, #0	; 0x0
51401c00:	eb00c1fb 	bl	514323f4 <__oldboot_ram_start+0x323f4>
51401c04:	e3500000 	cmp	r0, #0	; 0x0
51401c08:	0a000003 	beq	51401c1c <__oldboot_ram_start+0x1c1c>
51401c0c:	e28f0f5b 	add	r0, pc, #364	; 0x16c
51401c10:	eb000653 	bl	51403564 <__oldboot_ram_start+0x3564>
51401c14:	e3a00000 	mov	r0, #0	; 0x0
51401c18:	eafffff6 	b	51401bf8 <__oldboot_ram_start+0x1bf8>
51401c1c:	e3a00000 	mov	r0, #0	; 0x0
51401c20:	eb00c7ab 	bl	51433ad4 <__oldboot_ram_start+0x33ad4>
51401c24:	e1a02000 	mov	r2, r0
51401c28:	e3a00000 	mov	r0, #0	; 0x0
51401c2c:	e3a01000 	mov	r1, #0	; 0x0
51401c30:	eb00be97 	bl	51431694 <__oldboot_ram_start+0x31694>
51401c34:	e3a00001 	mov	r0, #1	; 0x1
51401c38:	eaffffee 	b	51401bf8 <__oldboot_ram_start+0x1bf8>
51401c3c:	e92d41fc 	stmdb	sp!, {r2, r3, r4, r5, r6, r7, r8, lr}
51401c40:	eb00bd48 	bl	51431168 <__oldboot_ram_start+0x31168>
51401c44:	ebfffecf 	bl	51401788 <__oldboot_ram_start+0x1788>
51401c48:	eb00ba51 	bl	51430594 <__oldboot_ram_start+0x30594>
51401c4c:	eb00dbd0 	bl	51438b94 <__oldboot_ram_start+0x38b94>
51401c50:	ebfffe05 	bl	5140146c <__oldboot_ram_start+0x146c>
51401c54:	eb00085b 	bl	51403dc8 <__oldboot_ram_start+0x3dc8>
51401c58:	eb00650a 	bl	5141b088 <__oldboot_ram_start+0x1b088>
51401c5c:	eb00626e 	bl	5141a61c <__oldboot_ram_start+0x1a61c>
51401c60:	e3a01001 	mov	r1, #1	; 0x1
51401c64:	e3a000af 	mov	r0, #175	; 0xaf
51401c68:	eb00d902 	bl	51438078 <__oldboot_ram_start+0x38078>
51401c6c:	e3a01000 	mov	r1, #0	; 0x0
51401c70:	e3a000af 	mov	r0, #175	; 0xaf
51401c74:	eb00d91f 	bl	514380f8 <__oldboot_ram_start+0x380f8>
51401c78:	e3a00000 	mov	r0, #0	; 0x0
51401c7c:	ebffff76 	bl	51401a5c <__oldboot_ram_start+0x1a5c>
51401c80:	e3a00000 	mov	r0, #0	; 0x0
51401c84:	ebffff5a 	bl	514019f4 <__oldboot_ram_start+0x19f4>
51401c88:	e3a00001 	mov	r0, #1	; 0x1
51401c8c:	eb006453 	bl	5141ade0 <__oldboot_ram_start+0x1ade0>
51401c90:	e28f00fc 	add	r0, pc, #252	; 0xfc
51401c94:	eb000632 	bl	51403564 <__oldboot_ram_start+0x3564>
51401c98:	e3a00018 	mov	r0, #24	; 0x18
51401c9c:	eb0064d9 	bl	5141b008 <__oldboot_ram_start+0x1b008>
51401ca0:	e28f0f41 	add	r0, pc, #260	; 0x104
51401ca4:	eb00062e 	bl	51403564 <__oldboot_ram_start+0x3564>
51401ca8:	e3a01000 	mov	r1, #0	; 0x0
51401cac:	e3a00004 	mov	r0, #4	; 0x4
51401cb0:	eb00d17f 	bl	514362b4 <__oldboot_ram_start+0x362b4>
51401cb4:	eb00bd2b 	bl	51431168 <__oldboot_ram_start+0x31168>
51401cb8:	e28f0f41 	add	r0, pc, #260	; 0x104
51401cbc:	eb000628 	bl	51403564 <__oldboot_ram_start+0x3564>
51401cc0:	e59f0120 	ldr	r0, [pc, #288]	; 51401de8 <__oldboot_ram_start+0x1de8>
51401cc4:	e5900000 	ldr	r0, [r0]
51401cc8:	e5901904 	ldr	r1, [r0, #2308]
51401ccc:	e28f0f46 	add	r0, pc, #280	; 0x118
51401cd0:	eb000623 	bl	51403564 <__oldboot_ram_start+0x3564>
51401cd4:	e3a00043 	mov	r0, #67	; 0x43
51401cd8:	eb00d683 	bl	514376ec <__oldboot_ram_start+0x376ec>
51401cdc:	e1a04000 	mov	r4, r0
51401ce0:	e3a00042 	mov	r0, #66	; 0x42
51401ce4:	eb00d680 	bl	514376ec <__oldboot_ram_start+0x376ec>
51401ce8:	e1a05000 	mov	r5, r0
51401cec:	e3a00041 	mov	r0, #65	; 0x41
51401cf0:	eb00d67d 	bl	514376ec <__oldboot_ram_start+0x376ec>
51401cf4:	e1a06000 	mov	r6, r0
51401cf8:	e3a0003f 	mov	r0, #63	; 0x3f
51401cfc:	eb00d67a 	bl	514376ec <__oldboot_ram_start+0x376ec>
51401d00:	e1a07000 	mov	r7, r0
51401d04:	e3a00004 	mov	r0, #4	; 0x4
51401d08:	eb00d677 	bl	514376ec <__oldboot_ram_start+0x376ec>
51401d0c:	e1a01000 	mov	r1, r0
51401d10:	e28f0c01 	add	r0, pc, #256	; 0x100
51401d14:	e1a03006 	mov	r3, r6
51401d18:	e1a02007 	mov	r2, r7
51401d1c:	e58d4004 	str	r4, [sp, #4]
51401d20:	e58d5000 	str	r5, [sp]
51401d24:	eb00060e 	bl	51403564 <__oldboot_ram_start+0x3564>
51401d28:	ebffffaa 	bl	51401bd8 <__oldboot_ram_start+0x1bd8>
51401d2c:	e3500000 	cmp	r0, #0	; 0x0
51401d30:	1a000002 	bne	51401d40 <__oldboot_ram_start+0x1d40>
51401d34:	e28f0f47 	add	r0, pc, #284	; 0x11c
51401d38:	eb000609 	bl	51403564 <__oldboot_ram_start+0x3564>
51401d3c:	ebfffedd 	bl	514018b8 <__oldboot_ram_start+0x18b8>
51401d40:	e8bd81fc 	ldmia	sp!, {r2, r3, r4, r5, r6, r7, r8, pc}
51401d44:	5a100000 	bpl	51801d4c <__oldboot_ram_start+0x401d4c>
51401d48:	4f4f425b 	svcmi	0x004f425b
51401d4c:	455b5d54 	ldrmib	r5, [fp, #-3412]
51401d50:	205d7272 	subcss	r7, sp, r2, ror r2
51401d54:	36433353 	undefined
51401d58:	5f303134 	svcpl	0x00303134
51401d5c:	5f44434c 	svcpl	0x0044434c
51401d60:	74696e49 	strvcbt	r6, [r9], #-3657
51401d64:	286e6957 	stmcsda	lr!, {r0, r1, r2, r4, r6, r8, fp, sp, lr}^
51401d68:	000a2029 	andeq	r2, sl, r9, lsr #32
51401d6c:	4c4e4f0d 	mcrrmi	15, 0, r4, lr, cr13
51401d70:	6e495f44 	cdpvs	15, 4, cr5, cr9, cr4, {2}
51401d74:	66207469 	strvst	r7, [r0], -r9, ror #8
51401d78:	656c6961 	strvsb	r6, [ip, #-2401]!
51401d7c:	000a0d64 	andeq	r0, sl, r4, ror #26
51401d80:	4c4e4f0d 	mcrrmi	15, 0, r4, lr, cr13
51401d84:	704f5f44 	subvc	r5, pc, r4, asr #30
51401d88:	66206e65 	strvst	r6, [r0], -r5, ror #28
51401d8c:	656c6961 	strvsb	r6, [ip, #-2401]!
51401d90:	000a0d64 	andeq	r0, sl, r4, ror #26
51401d94:	3342425b 	movtcc	r4, #8795	; 0x225b
51401d98:	56205d31 	undefined
51401d9c:	49204444 	stmmidb	r0!, {r2, r6, sl, lr}
51401da0:	3120544e 	teqcc	r0, lr, asr #8
51401da4:	2056322e 	subcss	r3, r6, lr, lsr #4
51401da8:	0000000a 	andeq	r0, r0, sl
51401dac:	3342425b 	movtcc	r4, #8795	; 0x225b
51401db0:	56205d31 	undefined
51401db4:	41204444 	teqmi	r0, r4, asr #8
51401db8:	31204d52 	teqcc	r0, r2, asr sp
51401dbc:	3532332e 	ldrcc	r3, [r2, #-814]!
51401dc0:	000a2056 	andeq	r2, sl, r6, asr r0
51401dc4:	52410a0d 	subpl	r0, r1, #53248	; 0xd000
51401dc8:	6c43204d 	mcrrvs	0, 4, r2, r3, cr13
51401dcc:	3a6b636f 	bcc	52edab90 <__oldboot_ram_start+0x1adab90>
51401dd0:	30303420 	eorccs	r3, r0, r0, lsr #8
51401dd4:	207a484d 	rsbcss	r4, sl, sp, asr #16
51401dd8:	203e2d2d 	eorcss	r2, lr, sp, lsr #26
51401ddc:	4d303038 	ldcmi	0, cr3, [r0, #-224]!
51401de0:	0d207a48 	fstmdbseq	r0!, {s14-s85}
51401de4:	0000000a 	andeq	r0, r0, sl
51401de8:	514431e0 	smlalttpl	r3, r4, r0, r1
51401dec:	4f4f425b 	svcmi	0x004f425b
51401df0:	445b5d54 	ldrmib	r5, [fp], #-3412
51401df4:	205d4742 	subcss	r4, sp, r2, asr #14
51401df8:	5f545352 	svcpl	0x00545352
51401dfc:	54415453 	strplb	r5, [r1], #-1107
51401e00:	37783020 	ldrccb	r3, [r8, -r0, lsr #32]!
51401e04:	5f303045 	svcpl	0x00303045
51401e08:	34303946 	ldrcct	r3, [r0], #-2374
51401e0c:	30203a20 	eorcc	r3, r0, r0, lsr #20
51401e10:	20582578 	subcss	r2, r8, r8, ror r5
51401e14:	0000000a 	andeq	r0, r0, sl
51401e18:	4f4f425b 	svcmi	0x004f425b
51401e1c:	41205d54 	teqmi	r0, r4, asr sp
51401e20:	4c434d52 	mcrrmi	13, 5, r4, r3, cr2
51401e24:	25203a4b 	strcs	r3, [r0, #-2635]!
51401e28:	4d202c64 	stcmi	12, cr2, [r0, #-400]!
51401e2c:	3a4c4c50 	bcc	52714f74 <__oldboot_ram_start+0x1314f74>
51401e30:	2c642520 	cfstr64cs	mvdx2, [r4], #-128
51401e34:	4c434820 	mcrrmi	8, 2, r4, r3, cr0
51401e38:	3a32584b 	bcc	52097f6c <__oldboot_ram_start+0xc97f6c>
51401e3c:	2c642520 	cfstr64cs	mvdx2, [r4], #-128
51401e40:	4c434820 	mcrrmi	8, 2, r4, r3, cr0
51401e44:	25203a4b 	strcs	r3, [r0, #-2635]!
51401e48:	50202c64 	eorpl	r2, r0, r4, ror #24
51401e4c:	3a4b4c43 	bcc	526d4f60 <__oldboot_ram_start+0x12d4f60>
51401e50:	20642520 	rsbcs	r2, r4, r0, lsr #10
51401e54:	00000a0d 	andeq	r0, r0, sp, lsl #20
51401e58:	4e656e4f 	cdpmi	14, 6, cr6, cr5, cr15, {2}
51401e5c:	5f444e41 	svcpl	0x00444e41
51401e60:	74696e49 	strvcbt	r6, [r9], #-3657
51401e64:	69616620 	stmvsdb	r1!, {r5, r9, sl, sp, lr}^
51401e68:	0d64656c 	cfstr64eq	mvdx6, [r4, #-432]!
51401e6c:	0000000a 	andeq	r0, r0, sl
51401e70:	e59f03e0 	ldr	r0, [pc, #992]	; 51402258 <__oldboot_ram_start+0x2258>
51401e74:	e590000c 	ldr	r0, [r0, #12]
51401e78:	e12fff1e 	bx	lr
51401e7c:	e3a02000 	mov	r2, #0	; 0x0
51401e80:	e590300c 	ldr	r3, [r0, #12]
51401e84:	ea000006 	b	51401ea4 <__oldboot_ram_start+0x1ea4>
51401e88:	e080c202 	add	ip, r0, r2, lsl #4
51401e8c:	e59cc088 	ldr	ip, [ip, #136]
51401e90:	e15c0001 	cmp	ip, r1
51401e94:	1a000001 	bne	51401ea0 <__oldboot_ram_start+0x1ea0>
51401e98:	e1a00002 	mov	r0, r2
51401e9c:	e12fff1e 	bx	lr
51401ea0:	e2822001 	add	r2, r2, #1	; 0x1
51401ea4:	e1530002 	cmp	r3, r2
51401ea8:	8afffff6 	bhi	51401e88 <__oldboot_ram_start+0x1e88>
51401eac:	e3e00000 	mvn	r0, #0	; 0x0
51401eb0:	eafffff9 	b	51401e9c <__oldboot_ram_start+0x1e9c>
51401eb4:	e92d407f 	stmdb	sp!, {r0, r1, r2, r3, r4, r5, r6, lr}
51401eb8:	eb004d2d 	bl	51415374 <__oldboot_ram_start+0x15374>
51401ebc:	e5904018 	ldr	r4, [r0, #24]
51401ec0:	e5905024 	ldr	r5, [r0, #36]
51401ec4:	e3a00000 	mov	r0, #0	; 0x0
51401ec8:	eb00081c 	bl	51403f40 <__oldboot_ram_start+0x3f40>
51401ecc:	e59f1388 	ldr	r1, [pc, #904]	; 5140225c <__oldboot_ram_start+0x225c>
51401ed0:	e59f0388 	ldr	r0, [pc, #904]	; 51402260 <__oldboot_ram_start+0x2260>
51401ed4:	e3a02e8b 	mov	r2, #2224	; 0x8b0
51401ed8:	eb0008f7 	bl	514042bc <__oldboot_ram_start+0x42bc>
51401edc:	e59f037c 	ldr	r0, [pc, #892]	; 51402260 <__oldboot_ram_start+0x2260>
51401ee0:	e0804104 	add	r4, r0, r4, lsl #2
51401ee4:	e5940828 	ldr	r0, [r4, #2088]
51401ee8:	e3500001 	cmp	r0, #1	; 0x1
51401eec:	1a00000f 	bne	51401f30 <__oldboot_ram_start+0x1f30>
51401ef0:	e3550000 	cmp	r5, #0	; 0x0
51401ef4:	1a00000d 	bne	51401f30 <__oldboot_ram_start+0x1f30>
51401ef8:	e5940818 	ldr	r0, [r4, #2072]
51401efc:	e5942820 	ldr	r2, [r4, #2080]
51401f00:	e2801685 	add	r1, r0, #139460608	; 0x8500000
51401f04:	e59f0358 	ldr	r0, [pc, #856]	; 51402264 <__oldboot_ram_start+0x2264>
51401f08:	eb0008eb 	bl	514042bc <__oldboot_ram_start+0x42bc>
51401f0c:	e5940800 	ldr	r0, [r4, #2048]
51401f10:	e59417f8 	ldr	r1, [r4, #2040]
51401f14:	e5942808 	ldr	r2, [r4, #2056]
51401f18:	e5943810 	ldr	r3, [r4, #2064]
51401f1c:	e88d000f 	stmia	sp, {r0, r1, r2, r3}
51401f20:	e59f033c 	ldr	r0, [pc, #828]	; 51402264 <__oldboot_ram_start+0x2264>
51401f24:	e3a02000 	mov	r2, #0	; 0x0
51401f28:	e3a03000 	mov	r3, #0	; 0x0
51401f2c:	eb005825 	bl	51417fc8 <__oldboot_ram_start+0x17fc8>
51401f30:	e5940870 	ldr	r0, [r4, #2160]
51401f34:	e3500001 	cmp	r0, #1	; 0x1
51401f38:	1a000006 	bne	51401f58 <__oldboot_ram_start+0x1f58>
51401f3c:	e5940860 	ldr	r0, [r4, #2144]
51401f40:	e5942868 	ldr	r2, [r4, #2152]
51401f44:	e2801685 	add	r1, r0, #139460608	; 0x8500000
51401f48:	e59f0314 	ldr	r0, [pc, #788]	; 51402264 <__oldboot_ram_start+0x2264>
51401f4c:	eb0008da 	bl	514042bc <__oldboot_ram_start+0x42bc>
51401f50:	e3a00001 	mov	r0, #1	; 0x1
51401f54:	eb00576d 	bl	51417d10 <__oldboot_ram_start+0x17d10>
51401f58:	e8bd807f 	ldmia	sp!, {r0, r1, r2, r3, r4, r5, r6, pc}
51401f5c:	e92d4010 	stmdb	sp!, {r4, lr}
51401f60:	e59f0300 	ldr	r0, [pc, #768]	; 51402268 <__oldboot_ram_start+0x2268>
51401f64:	eb005606 	bl	51417784 <__oldboot_ram_start+0x17784>
51401f68:	e3500000 	cmp	r0, #0	; 0x0
51401f6c:	0a000002 	beq	51401f7c <__oldboot_ram_start+0x1f7c>
51401f70:	e28f0fbd 	add	r0, pc, #756	; 0x2f4
51401f74:	eb00057a 	bl	51403564 <__oldboot_ram_start+0x3564>
51401f78:	ebfffe4e 	bl	514018b8 <__oldboot_ram_start+0x18b8>
51401f7c:	ebffffcc 	bl	51401eb4 <__oldboot_ram_start+0x1eb4>
51401f80:	e3a00001 	mov	r0, #1	; 0x1
51401f84:	eb005761 	bl	51417d10 <__oldboot_ram_start+0x17d10>
51401f88:	e59f4314 	ldr	r4, [pc, #788]	; 514022a4 <__oldboot_ram_start+0x22a4>
51401f8c:	e59f130c 	ldr	r1, [pc, #780]	; 514022a0 <__oldboot_ram_start+0x22a0>
51401f90:	e5940000 	ldr	r0, [r4]
51401f94:	ebffffb8 	bl	51401e7c <__oldboot_ram_start+0x1e7c>
51401f98:	e5941000 	ldr	r1, [r4]
51401f9c:	e0811200 	add	r1, r1, r0, lsl #4
51401fa0:	e5911088 	ldr	r1, [r1, #136]
51401fa4:	eb0057c5 	bl	51417ec0 <__oldboot_ram_start+0x17ec0>
51401fa8:	e59f12f8 	ldr	r1, [pc, #760]	; 514022a8 <__oldboot_ram_start+0x22a8>
51401fac:	e5940000 	ldr	r0, [r4]
51401fb0:	ebffffb1 	bl	51401e7c <__oldboot_ram_start+0x1e7c>
51401fb4:	e5941000 	ldr	r1, [r4]
51401fb8:	e0811200 	add	r1, r1, r0, lsl #4
51401fbc:	e5911088 	ldr	r1, [r1, #136]
51401fc0:	eb0057be 	bl	51417ec0 <__oldboot_ram_start+0x17ec0>
51401fc4:	eb0019b8 	bl	514086ac <__oldboot_ram_start+0x86ac>
51401fc8:	e3500000 	cmp	r0, #0	; 0x0
51401fcc:	0a000000 	beq	51401fd4 <__oldboot_ram_start+0x1fd4>
51401fd0:	eafffffe 	b	51401fd0 <__oldboot_ram_start+0x1fd0>
51401fd4:	e8bd8010 	ldmia	sp!, {r4, pc}
51401fd8:	e92d4030 	stmdb	sp!, {r4, r5, lr}
51401fdc:	e59dc00c 	ldr	ip, [sp, #12]
51401fe0:	ee12ef10 	mrc	15, 0, lr, cr2, cr0, {0}
51401fe4:	e1a04a21 	mov	r4, r1, lsr #20
51401fe8:	e1a04a04 	mov	r4, r4, lsl #20
51401fec:	e1a05a22 	mov	r5, r2, lsr #20
51401ff0:	e1a05a05 	mov	r5, r5, lsl #20
51401ff4:	e3a00000 	mov	r0, #0	; 0x0
51401ff8:	ea00000d 	b	51402034 <__oldboot_ram_start+0x2034>
51401ffc:	e0841000 	add	r1, r4, r0
51402000:	e1a01921 	mov	r1, r1, lsr #18
51402004:	e0852000 	add	r2, r5, r0
51402008:	e3822b03 	orr	r2, r2, #3072	; 0xc00
5140200c:	e3822002 	orr	r2, r2, #2	; 0x2
51402010:	e35c0001 	cmp	ip, #1	; 0x1
51402014:	1a000001 	bne	51402020 <__oldboot_ram_start+0x2020>
51402018:	e382200c 	orr	r2, r2, #12	; 0xc
5140201c:	ea000002 	b	5140202c <__oldboot_ram_start+0x202c>
51402020:	e35c0002 	cmp	ip, #2	; 0x2
51402024:	1a000000 	bne	5140202c <__oldboot_ram_start+0x202c>
51402028:	e3822008 	orr	r2, r2, #8	; 0x8
5140202c:	e78e2001 	str	r2, [lr, r1]
51402030:	e2800601 	add	r0, r0, #1048576	; 0x100000
51402034:	e1500003 	cmp	r0, r3
51402038:	3affffef 	bcc	51401ffc <__oldboot_ram_start+0x1ffc>
5140203c:	e8bd8030 	ldmia	sp!, {r4, r5, pc}
51402040:	e92d407c 	stmdb	sp!, {r2, r3, r4, r5, r6, lr}
51402044:	ee116f10 	mrc	15, 0, r6, cr1, cr0, {0}
51402048:	e3c62b06 	bic	r2, r6, #6144	; 0x1800
5140204c:	e3c22005 	bic	r2, r2, #5	; 0x5
51402050:	ee012f10 	mcr	15, 0, r2, cr1, cr0, {0}
51402054:	e320f000 	nop	{0}
51402058:	e320f000 	nop	{0}
5140205c:	e320f000 	nop	{0}
51402060:	ee020f10 	mcr	15, 0, r0, cr2, cr0, {0}
51402064:	e3510001 	cmp	r1, #1	; 0x1
51402068:	1a00000f 	bne	514020ac <__oldboot_ram_start+0x20ac>
5140206c:	e3a04000 	mov	r4, #0	; 0x0
51402070:	e59f5234 	ldr	r5, [pc, #564]	; 514022ac <__oldboot_ram_start+0x22ac>
51402074:	e0841104 	add	r1, r4, r4, lsl #2
51402078:	e0850101 	add	r0, r5, r1, lsl #2
5140207c:	e5903010 	ldr	r3, [r0, #16]
51402080:	e5d0200c 	ldrb	r2, [r0, #12]
51402084:	e1cd20f0 	strd	r2, [sp]
51402088:	e7952101 	ldr	r2, [r5, r1, lsl #2]
5140208c:	e5901004 	ldr	r1, [r0, #4]
51402090:	e5903008 	ldr	r3, [r0, #8]
51402094:	e1a00004 	mov	r0, r4
51402098:	ebffffce 	bl	51401fd8 <__oldboot_ram_start+0x1fd8>
5140209c:	e2844001 	add	r4, r4, #1	; 0x1
514020a0:	e3540007 	cmp	r4, #7	; 0x7
514020a4:	bafffff2 	blt	51402074 <__oldboot_ram_start+0x2074>
514020a8:	ea00000e 	b	514020e8 <__oldboot_ram_start+0x20e8>
514020ac:	e3a04000 	mov	r4, #0	; 0x0
514020b0:	e59f51f8 	ldr	r5, [pc, #504]	; 514022b0 <__oldboot_ram_start+0x22b0>
514020b4:	e0841104 	add	r1, r4, r4, lsl #2
514020b8:	e0850101 	add	r0, r5, r1, lsl #2
514020bc:	e5903010 	ldr	r3, [r0, #16]
514020c0:	e5d0200c 	ldrb	r2, [r0, #12]
514020c4:	e1cd20f0 	strd	r2, [sp]
514020c8:	e7952101 	ldr	r2, [r5, r1, lsl #2]
514020cc:	e5901004 	ldr	r1, [r0, #4]
514020d0:	e5903008 	ldr	r3, [r0, #8]
514020d4:	e1a00004 	mov	r0, r4
514020d8:	ebffffbe 	bl	51401fd8 <__oldboot_ram_start+0x1fd8>
514020dc:	e2844001 	add	r4, r4, #1	; 0x1
514020e0:	e3540007 	cmp	r4, #7	; 0x7
514020e4:	bafffff2 	blt	514020b4 <__oldboot_ram_start+0x20b4>
514020e8:	e3a00003 	mov	r0, #3	; 0x3
514020ec:	ee030f10 	mcr	15, 0, r0, cr3, cr0, {0}
514020f0:	ee110f10 	mrc	15, 0, r0, cr1, cr0, {0}
514020f4:	e3800b06 	orr	r0, r0, #6144	; 0x1800
514020f8:	e3800005 	orr	r0, r0, #5	; 0x5
514020fc:	e3a01000 	mov	r1, #0	; 0x0
51402100:	ee071f1e 	mcr	15, 0, r1, cr7, cr14, {0}
51402104:	ee010f10 	mcr	15, 0, r0, cr1, cr0, {0}
51402108:	e320f000 	nop	{0}
5140210c:	e320f000 	nop	{0}
51402110:	e320f000 	nop	{0}
51402114:	e1a00006 	mov	r0, r6
51402118:	e8bd807c 	ldmia	sp!, {r2, r3, r4, r5, r6, pc}
5140211c:	e92d4ff8 	stmdb	sp!, {r3, r4, r5, r6, r7, r8, r9, sl, fp, lr}
51402120:	e1a05000 	mov	r5, r0
51402124:	e1a0a001 	mov	sl, r1
51402128:	e3a04b02 	mov	r4, #2048	; 0x800
5140212c:	e3a06685 	mov	r6, #139460608	; 0x8500000
51402130:	e3e00000 	mvn	r0, #0	; 0x0
51402134:	e5850000 	str	r0, [r5]
51402138:	e3a07000 	mov	r7, #0	; 0x0
5140213c:	e59f9170 	ldr	r9, [pc, #368]	; 514022b4 <__oldboot_ram_start+0x22b4>
51402140:	e3a00802 	mov	r0, #131072	; 0x20000
51402144:	e1a01004 	mov	r1, r4
51402148:	eb00f766 	bl	5143fee8 <__oldboot_ram_start+0x3fee8>
5140214c:	e1a0b000 	mov	fp, r0
51402150:	ea000011 	b	5140219c <__oldboot_ram_start+0x219c>
51402154:	e59f0158 	ldr	r0, [pc, #344]	; 514022b4 <__oldboot_ram_start+0x22b4>
51402158:	e1a02004 	mov	r2, r4
5140215c:	e1a01006 	mov	r1, r6
51402160:	eb000855 	bl	514042bc <__oldboot_ram_start+0x42bc>
51402164:	e5990000 	ldr	r0, [r9]
51402168:	e0891104 	add	r1, r9, r4, lsl #2
5140216c:	e5111010 	ldr	r1, [r1, #-16]
51402170:	e3700001 	cmn	r0, #1	; 0x1
51402174:	0a000004 	beq	5140218c <__oldboot_ram_start+0x218c>
51402178:	e3710001 	cmn	r1, #1	; 0x1
5140217c:	0a000002 	beq	5140218c <__oldboot_ram_start+0x218c>
51402180:	e5856000 	str	r6, [r5]
51402184:	e0866004 	add	r6, r6, r4
51402188:	ea000002 	b	51402198 <__oldboot_ram_start+0x2198>
5140218c:	e3700001 	cmn	r0, #1	; 0x1
51402190:	0a000003 	beq	514021a4 <__oldboot_ram_start+0x21a4>
51402194:	e0866004 	add	r6, r6, r4
51402198:	e2877001 	add	r7, r7, #1	; 0x1
5140219c:	e15b0007 	cmp	fp, r7
514021a0:	8affffeb 	bhi	51402154 <__oldboot_ram_start+0x2154>
514021a4:	e5950000 	ldr	r0, [r5]
514021a8:	e3700001 	cmn	r0, #1	; 0x1
514021ac:	1a00001a 	bne	5140221c <__oldboot_ram_start+0x221c>
514021b0:	e2441001 	sub	r1, r4, #1	; 0x1
514021b4:	e0000b91 	mul	r0, r1, fp
514021b8:	e2807685 	add	r7, r0, #139460608	; 0x8500000
514021bc:	e3a06000 	mov	r6, #0	; 0x0
514021c0:	e0898104 	add	r8, r9, r4, lsl #2
514021c4:	ea00000d 	b	51402200 <__oldboot_ram_start+0x2200>
514021c8:	e59f00e4 	ldr	r0, [pc, #228]	; 514022b4 <__oldboot_ram_start+0x22b4>
514021cc:	e1a02004 	mov	r2, r4
514021d0:	e1a01007 	mov	r1, r7
514021d4:	eb000838 	bl	514042bc <__oldboot_ram_start+0x42bc>
514021d8:	e5990000 	ldr	r0, [r9]
514021dc:	e5181010 	ldr	r1, [r8, #-16]
514021e0:	e3700001 	cmn	r0, #1	; 0x1
514021e4:	0a000003 	beq	514021f8 <__oldboot_ram_start+0x21f8>
514021e8:	e3710001 	cmn	r1, #1	; 0x1
514021ec:	0a000001 	beq	514021f8 <__oldboot_ram_start+0x21f8>
514021f0:	e5857000 	str	r7, [r5]
514021f4:	ea000003 	b	51402208 <__oldboot_ram_start+0x2208>
514021f8:	e0477004 	sub	r7, r7, r4
514021fc:	e2866001 	add	r6, r6, #1	; 0x1
51402200:	e15b0006 	cmp	fp, r6
51402204:	8affffef 	bhi	514021c8 <__oldboot_ram_start+0x21c8>
51402208:	e5950000 	ldr	r0, [r5]
5140220c:	e3700001 	cmn	r0, #1	; 0x1
51402210:	1a000001 	bne	5140221c <__oldboot_ram_start+0x221c>
51402214:	e3a00000 	mov	r0, #0	; 0x0
51402218:	e8bd8ff8 	ldmia	sp!, {r3, r4, r5, r6, r7, r8, r9, sl, fp, pc}
5140221c:	e5950000 	ldr	r0, [r5]
51402220:	e2800b02 	add	r0, r0, #2048	; 0x800
51402224:	e58a0000 	str	r0, [sl]
51402228:	e2600852 	rsb	r0, r0, #5373952	; 0x520000
5140222c:	e2800302 	add	r0, r0, #134217728	; 0x8000000
51402230:	e3500a01 	cmp	r0, #4096	; 0x1000
51402234:	2a000001 	bcs	51402240 <__oldboot_ram_start+0x2240>
51402238:	e3a00685 	mov	r0, #139460608	; 0x8500000
5140223c:	e58a0000 	str	r0, [sl]
51402240:	e59f006c 	ldr	r0, [pc, #108]	; 514022b4 <__oldboot_ram_start+0x22b4>
51402244:	e5951000 	ldr	r1, [r5]
51402248:	e1a02004 	mov	r2, r4
5140224c:	eb00081a 	bl	514042bc <__oldboot_ram_start+0x42bc>
51402250:	e3a00001 	mov	r0, #1	; 0x1
51402254:	eaffffef 	b	51402218 <__oldboot_ram_start+0x2218>
51402258:	514449a8 	smlaltbpl	r4, r4, r8, r9
5140225c:	08520000 	ldmeqda	r2, {}^
51402260:	5144800c 	cmppl	r4, ip
51402264:	514488bc 	strplh	r8, [r4, #-140]
51402268:	5c700000 	ldcpll	0, cr0, [r0]
5140226c:	614c0a0d 	cmpvs	ip, sp, lsl #20
51402270:	68636e75 	stmvsda	r3!, {r0, r2, r4, r5, r6, r9, sl, fp, sp, lr}^
51402274:	6c63754e 	cfstr64vs	mvdx7, [r3], #-312
51402278:	28737565 	ldmcsda	r3!, {r0, r2, r5, r6, r8, sl, ip, sp, lr}^
5140227c:	51203a29 	teqpl	r0, r9, lsr #20
51402280:	6d617275 	sfmvs	f7, 2, [r1, #-468]!
51402284:	616c465f 	cmnvs	ip, pc, asr r6
51402288:	495f6873 	ldmmidb	pc, {r0, r1, r4, r5, r6, fp, sp, lr}^
5140228c:	2874696e 	ldmcsda	r4!, {r1, r2, r3, r5, r6, r8, fp, sp, lr}^
51402290:	61462029 	cmpvs	r6, r9, lsr #32
51402294:	64656c69 	strvsbt	r6, [r5], #-3177
51402298:	0a0d202e 	beq	5174a358 <__oldboot_ram_start+0x34a358>
5140229c:	00000000 	andeq	r0, r0, r0
514022a0:	50100000 	andpls	r0, r0, r0
514022a4:	51445dbc 	strplh	r5, [r4, #-220]
514022a8:	50b00000 	adcpls	r0, r0, r0
514022ac:	5144012c 	cmppl	r4, ip, lsr #2
514022b0:	514401b8 	strplh	r0, [r4, #-24]
514022b4:	51454000 	cmppl	r5, r0
514022b8:	e92d403e 	stmdb	sp!, {r1, r2, r3, r4, r5, lr}
514022bc:	e59f427c 	ldr	r4, [pc, #636]	; 51402540 <__oldboot_ram_start+0x2540>
514022c0:	e3a05000 	mov	r5, #0	; 0x0
514022c4:	e5845000 	str	r5, [r4]
514022c8:	e28d1004 	add	r1, sp, #4	; 0x4
514022cc:	e28d0008 	add	r0, sp, #8	; 0x8
514022d0:	ebffff91 	bl	5140211c <__oldboot_ram_start+0x211c>
514022d4:	e59d0008 	ldr	r0, [sp, #8]
514022d8:	e3a02004 	mov	r2, #4	; 0x4
514022dc:	e2801008 	add	r1, r0, #8	; 0x8
514022e0:	e1a0000d 	mov	r0, sp
514022e4:	eb0007f4 	bl	514042bc <__oldboot_ram_start+0x42bc>
514022e8:	e5940000 	ldr	r0, [r4]
514022ec:	e2000cff 	and	r0, r0, #65280	; 0xff00
514022f0:	e59d1000 	ldr	r1, [sp]
514022f4:	e20110ff 	and	r1, r1, #255	; 0xff
514022f8:	e1810000 	orr	r0, r1, r0
514022fc:	e5840000 	str	r0, [r4]
51402300:	eb004c1b 	bl	51415374 <__oldboot_ram_start+0x15374>
51402304:	e5941000 	ldr	r1, [r4]
51402308:	e31100ff 	tst	r1, #255	; 0xff
5140230c:	0a000002 	beq	5140231c <__oldboot_ram_start+0x231c>
51402310:	e59f122c 	ldr	r1, [pc, #556]	; 51402544 <__oldboot_ram_start+0x2544>
51402314:	e5801004 	str	r1, [r0, #4]
51402318:	e8bd803e 	ldmia	sp!, {r1, r2, r3, r4, r5, pc}
5140231c:	e5805004 	str	r5, [r0, #4]
51402320:	eafffffc 	b	51402318 <__oldboot_ram_start+0x2318>
51402324:	e92d400e 	stmdb	sp!, {r1, r2, r3, lr}
51402328:	e28d1004 	add	r1, sp, #4	; 0x4
5140232c:	e28d0008 	add	r0, sp, #8	; 0x8
51402330:	ebffff79 	bl	5140211c <__oldboot_ram_start+0x211c>
51402334:	e59d0008 	ldr	r0, [sp, #8]
51402338:	e3a02004 	mov	r2, #4	; 0x4
5140233c:	e280100c 	add	r1, r0, #12	; 0xc
51402340:	e1a0000d 	mov	r0, sp
51402344:	eb0007dc 	bl	514042bc <__oldboot_ram_start+0x42bc>
51402348:	e59d1000 	ldr	r1, [sp]
5140234c:	e28f0f7d 	add	r0, pc, #500	; 0x1f4
51402350:	eb000483 	bl	51403564 <__oldboot_ram_start+0x3564>
51402354:	eb004c06 	bl	51415374 <__oldboot_ram_start+0x15374>
51402358:	e1a01000 	mov	r1, r0
5140235c:	e59d0000 	ldr	r0, [sp]
51402360:	e581002c 	str	r0, [r1, #44]
51402364:	e2000002 	and	r0, r0, #2	; 0x2
51402368:	e8bd900c 	ldmia	sp!, {r2, r3, ip, pc}
5140236c:	e92d400e 	stmdb	sp!, {r1, r2, r3, lr}
51402370:	e28d1004 	add	r1, sp, #4	; 0x4
51402374:	e28d0008 	add	r0, sp, #8	; 0x8
51402378:	ebffff67 	bl	5140211c <__oldboot_ram_start+0x211c>
5140237c:	e59d0008 	ldr	r0, [sp, #8]
51402380:	e3a02004 	mov	r2, #4	; 0x4
51402384:	e280100c 	add	r1, r0, #12	; 0xc
51402388:	e1a0000d 	mov	r0, sp
5140238c:	eb0007ca 	bl	514042bc <__oldboot_ram_start+0x42bc>
51402390:	e59d1000 	ldr	r1, [sp]
51402394:	e28f0f71 	add	r0, pc, #452	; 0x1c4
51402398:	eb000471 	bl	51403564 <__oldboot_ram_start+0x3564>
5140239c:	e59d0000 	ldr	r0, [sp]
514023a0:	e2000001 	and	r0, r0, #1	; 0x1
514023a4:	e8bd900c 	ldmia	sp!, {r2, r3, ip, pc}
514023a8:	e92d4070 	stmdb	sp!, {r4, r5, r6, lr}
514023ac:	e24ddf86 	sub	sp, sp, #536	; 0x218
514023b0:	e59f01c0 	ldr	r0, [pc, #448]	; 51402578 <__oldboot_ram_start+0x2578>
514023b4:	e3a01001 	mov	r1, #1	; 0x1
514023b8:	ebffff20 	bl	51402040 <__oldboot_ram_start+0x2040>
514023bc:	e1a05000 	mov	r5, r0
514023c0:	e59f01b4 	ldr	r0, [pc, #436]	; 5140257c <__oldboot_ram_start+0x257c>
514023c4:	eb004b56 	bl	51415124 <__oldboot_ram_start+0x15124>
514023c8:	e28d1f79 	add	r1, sp, #484	; 0x1e4
514023cc:	e3a00611 	mov	r0, #17825792	; 0x1100000
514023d0:	eb004b5c 	bl	51415148 <__oldboot_ram_start+0x15148>
514023d4:	e3500000 	cmp	r0, #0	; 0x0
514023d8:	0a000054 	beq	51402530 <__oldboot_ram_start+0x2530>
514023dc:	e28dcc02 	add	ip, sp, #512	; 0x200
514023e0:	e1dc01b0 	ldrh	r0, [ip, #16]
514023e4:	e350000f 	cmp	r0, #15	; 0xf
514023e8:	9a000002 	bls	514023f8 <__oldboot_ram_start+0x23f8>
514023ec:	e28f0f63 	add	r0, pc, #396	; 0x18c
514023f0:	eb00045b 	bl	51403564 <__oldboot_ram_start+0x3564>
514023f4:	ebfffd2f 	bl	514018b8 <__oldboot_ram_start+0x18b8>
514023f8:	e28d1004 	add	r1, sp, #4	; 0x4
514023fc:	e3a00611 	mov	r0, #17825792	; 0x1100000
51402400:	eb004b60 	bl	51415188 <__oldboot_ram_start+0x15188>
51402404:	e1a06000 	mov	r6, r0
51402408:	e3a02307 	mov	r2, #469762048	; 0x1c000000
5140240c:	e1a01006 	mov	r1, r6
51402410:	e28d0004 	add	r0, sp, #4	; 0x4
51402414:	eb004ba8 	bl	514152bc <__oldboot_ram_start+0x152bc>
51402418:	e3500000 	cmp	r0, #0	; 0x0
5140241c:	0a000001 	beq	51402428 <__oldboot_ram_start+0x2428>
51402420:	e3a01001 	mov	r1, #1	; 0x1
51402424:	eb004b29 	bl	514150d0 <__oldboot_ram_start+0x150d0>
51402428:	e51f2190 	ldr	r2, [pc, #-400]	; 514022a0 <__oldboot_ram_start+0x22a0>
5140242c:	e1a01006 	mov	r1, r6
51402430:	e28d0004 	add	r0, sp, #4	; 0x4
51402434:	eb004ba0 	bl	514152bc <__oldboot_ram_start+0x152bc>
51402438:	e51f41e8 	ldr	r4, [pc, #-488]	; 51402258 <__oldboot_ram_start+0x2258>
5140243c:	e3500000 	cmp	r0, #0	; 0x0
51402440:	0a000005 	beq	5140245c <__oldboot_ram_start+0x245c>
51402444:	e5901004 	ldr	r1, [r0, #4]
51402448:	e584100c 	str	r1, [r4, #12]
5140244c:	e5901010 	ldr	r1, [r0, #16]
51402450:	e5841004 	str	r1, [r4, #4]
51402454:	e3a01001 	mov	r1, #1	; 0x1
51402458:	eb004b2c 	bl	51415110 <__oldboot_ram_start+0x15110>
5140245c:	e51f21bc 	ldr	r2, [pc, #-444]	; 514022a8 <__oldboot_ram_start+0x22a8>
51402460:	e1a01006 	mov	r1, r6
51402464:	e28d0004 	add	r0, sp, #4	; 0x4
51402468:	eb004b93 	bl	514152bc <__oldboot_ram_start+0x152bc>
5140246c:	e3500000 	cmp	r0, #0	; 0x0
51402470:	0a000003 	beq	51402484 <__oldboot_ram_start+0x2484>
51402474:	e5901010 	ldr	r1, [r0, #16]
51402478:	e5841008 	str	r1, [r4, #8]
5140247c:	e3a01001 	mov	r1, #1	; 0x1
51402480:	eb004b22 	bl	51415110 <__oldboot_ram_start+0x15110>
51402484:	e59f2130 	ldr	r2, [pc, #304]	; 514025bc <__oldboot_ram_start+0x25bc>
51402488:	e1a01006 	mov	r1, r6
5140248c:	e28d0004 	add	r0, sp, #4	; 0x4
51402490:	eb004b89 	bl	514152bc <__oldboot_ram_start+0x152bc>
51402494:	e3500000 	cmp	r0, #0	; 0x0
51402498:	0a000001 	beq	514024a4 <__oldboot_ram_start+0x24a4>
5140249c:	e3a01003 	mov	r1, #3	; 0x3
514024a0:	eb004b0a 	bl	514150d0 <__oldboot_ram_start+0x150d0>
514024a4:	e1a02006 	mov	r2, r6
514024a8:	e28d1004 	add	r1, sp, #4	; 0x4
514024ac:	e3a00611 	mov	r0, #17825792	; 0x1100000
514024b0:	eb004b6f 	bl	51415274 <__oldboot_ram_start+0x15274>
514024b4:	ebffff7f 	bl	514022b8 <__oldboot_ram_start+0x22b8>
514024b8:	ebffffab 	bl	5140236c <__oldboot_ram_start+0x236c>
514024bc:	ebfffd4c 	bl	514019f4 <__oldboot_ram_start+0x19f4>
514024c0:	ebffff97 	bl	51402324 <__oldboot_ram_start+0x2324>
514024c4:	ebfffd64 	bl	51401a5c <__oldboot_ram_start+0x1a5c>
514024c8:	eb001877 	bl	514086ac <__oldboot_ram_start+0x86ac>
514024cc:	e3500000 	cmp	r0, #0	; 0x0
514024d0:	0a000000 	beq	514024d8 <__oldboot_ram_start+0x24d8>
514024d4:	eafffffe 	b	514024d4 <__oldboot_ram_start+0x24d4>
514024d8:	eb0008b5 	bl	514047b4 <__oldboot_ram_start+0x47b4>
514024dc:	e3500000 	cmp	r0, #0	; 0x0
514024e0:	0a000000 	beq	514024e8 <__oldboot_ram_start+0x24e8>
514024e4:	eafffffe 	b	514024e4 <__oldboot_ram_start+0x24e4>
514024e8:	e3a00001 	mov	r0, #1	; 0x1
514024ec:	eb0017e1 	bl	51408478 <__oldboot_ram_start+0x8478>
514024f0:	e3500000 	cmp	r0, #0	; 0x0
514024f4:	0a000000 	beq	514024fc <__oldboot_ram_start+0x24fc>
514024f8:	eafffffe 	b	514024f8 <__oldboot_ram_start+0x24f8>
514024fc:	ebfffe96 	bl	51401f5c <__oldboot_ram_start+0x1f5c>
51402500:	ee015f10 	mcr	15, 0, r5, cr1, cr0, {0}
51402504:	e320f000 	nop	{0}
51402508:	e320f000 	nop	{0}
5140250c:	e320f000 	nop	{0}
51402510:	e3a0003a 	mov	r0, #58	; 0x3a
51402514:	ebfffc03 	bl	51401528 <__oldboot_ram_start+0x1528>
51402518:	e3a00000 	mov	r0, #0	; 0x0
5140251c:	ebfffc01 	bl	51401528 <__oldboot_ram_start+0x1528>
51402520:	e59d01fc 	ldr	r0, [sp, #508]
51402524:	e12fff30 	blx	r0
51402528:	e28ddf86 	add	sp, sp, #536	; 0x218
5140252c:	e8bd8070 	ldmia	sp!, {r4, r5, r6, pc}
51402530:	e28f0088 	add	r0, pc, #136	; 0x88
51402534:	eb00040a 	bl	51403564 <__oldboot_ram_start+0x3564>
51402538:	ebfffcde 	bl	514018b8 <__oldboot_ram_start+0x18b8>
5140253c:	eafffff9 	b	51402528 <__oldboot_ram_start+0x2528>
51402540:	5a0b003c 	bpl	516c2638 <__oldboot_ram_start+0x2c2638>
51402544:	abcdef12 	blge	5077e194 <__system_ram_start+0x77e194>
51402548:	5f746567 	svcpl	0x00746567
5140254c:	74726175 	ldrvcbt	r6, [r2], #-373
51402550:	5f77735f 	svcpl	0x0077735f
51402554:	3020766e 	eorcc	r7, r0, lr, ror #12
51402558:	0d782578 	cfldr64eq	mvdx2, [r8, #-480]!
5140255c:	0000000a 	andeq	r0, r0, sl
51402560:	5f746567 	svcpl	0x00746567
51402564:	5f627375 	svcpl	0x00627375
51402568:	6e5f7773 	mrcvs	7, 2, r7, cr15, cr3, {3}
5140256c:	78302076 	ldmvcda	r0!, {r1, r2, r4, r5, r6, sp}
51402570:	0a0d7825 	beq	5176060c <__oldboot_ram_start+0x36060c>
51402574:	00000000 	andeq	r0, r0, r0
51402578:	51450000 	cmppl	r5, r0
5140257c:	514042bc 	strplh	r4, [r0, #-44]
51402580:	614c0a0d 	cmpvs	ip, sp, lsl #20
51402584:	68636e75 	stmvsda	r3!, {r0, r2, r4, r5, r6, r9, sl, fp, sp, lr}^
51402588:	6c63754e 	cfstr64vs	mvdx7, [r3], #-312
5140258c:	28737565 	ldmcsda	r3!, {r0, r2, r5, r6, r8, sl, ip, sp, lr}^
51402590:	4e203a29 	fmulsmi	s6, s0, s19
51402594:	6520746f 	strvs	r7, [r0, #-1135]!
51402598:	756f676e 	strvcb	r6, [pc, #-1902]!	; 51401e32 <__oldboot_ram_start+0x1e32>
5140259c:	73206867 	teqvc	r0, #6750208	; 0x670000
514025a0:	63616370 	cmnvs	r1, #-1073741823	; 0xc0000001
514025a4:	6f662065 	svcvs	0x00662065
514025a8:	65732072 	ldrvsb	r2, [r3, #-114]!
514025ac:	6e656d67 	cdpvs	13, 6, cr6, cr5, cr7, {3}
514025b0:	6e692074 	mcrvs	0, 3, r2, cr9, cr4, {3}
514025b4:	0d736f66 	ldceql	15, cr6, [r3, #-408]!
514025b8:	0000000a 	andeq	r0, r0, sl
514025bc:	5a0b0000 	bpl	516c25c4 <__oldboot_ram_start+0x2c25c4>
514025c0:	614c0a0d 	cmpvs	ip, sp, lsl #20
514025c4:	68636e75 	stmvsda	r3!, {r0, r2, r4, r5, r6, r9, sl, fp, sp, lr}^
514025c8:	6c63754e 	cfstr64vs	mvdx7, [r3], #-312
514025cc:	28737565 	ldmcsda	r3!, {r0, r2, r5, r6, r8, sl, ip, sp, lr}^
514025d0:	54203a29 	strplt	r3, [r0], #-2601
514025d4:	65726568 	ldrvsb	r6, [r2, #-1384]!
514025d8:	20736920 	rsbcss	r6, r3, r0, lsr #18
514025dc:	45206f6e 	strmi	r6, [r0, #-3950]!
514025e0:	6820464c 	stmvsda	r0!, {r2, r3, r6, r9, sl, lr}
514025e4:	65646165 	strvsb	r6, [r4, #-357]!
514025e8:	000a0d72 	andeq	r0, sl, r2, ror sp
514025ec:	e2002001 	and	r2, r0, #1	; 0x1
514025f0:	e59f14d0 	ldr	r1, [pc, #1232]	; 51402ac8 <__oldboot_ram_start+0x2ac8>
514025f4:	e3520000 	cmp	r2, #0	; 0x0
514025f8:	1a00000c 	bne	51402630 <__oldboot_ram_start+0x2630>
514025fc:	e5913000 	ldr	r3, [r1]
51402600:	e5933818 	ldr	r3, [r3, #2072]
51402604:	e3c33001 	bic	r3, r3, #1	; 0x1
51402608:	e1832002 	orr	r2, r3, r2
5140260c:	e5913000 	ldr	r3, [r1]
51402610:	e5832818 	str	r2, [r3, #2072]
51402614:	e5912000 	ldr	r2, [r1]
51402618:	e5922810 	ldr	r2, [r2, #2064]
5140261c:	e5913000 	ldr	r3, [r1]
51402620:	e3c2200f 	bic	r2, r2, #15	; 0xf
51402624:	e3822001 	orr	r2, r2, #1	; 0x1
51402628:	e5832810 	str	r2, [r3, #2064]
5140262c:	ea00000a 	b	5140265c <__oldboot_ram_start+0x265c>
51402630:	e5912000 	ldr	r2, [r1]
51402634:	e592281c 	ldr	r2, [r2, #2076]
51402638:	e5913000 	ldr	r3, [r1]
5140263c:	e3c22003 	bic	r2, r2, #3	; 0x3
51402640:	e3822002 	orr	r2, r2, #2	; 0x2
51402644:	e583281c 	str	r2, [r3, #2076]
51402648:	e5912000 	ldr	r2, [r1]
5140264c:	e5922810 	ldr	r2, [r2, #2064]
51402650:	e5913000 	ldr	r3, [r1]
51402654:	e3c2200f 	bic	r2, r2, #15	; 0xf
51402658:	e5832810 	str	r2, [r3, #2064]
5140265c:	e2002002 	and	r2, r0, #2	; 0x2
51402660:	e1a020a2 	mov	r2, r2, lsr #1
51402664:	e3520000 	cmp	r2, #0	; 0x0
51402668:	e3a0c000 	mov	ip, #0	; 0x0
5140266c:	1a00000c 	bne	514026a4 <__oldboot_ram_start+0x26a4>
51402670:	e5912000 	ldr	r2, [r1]
51402674:	e5922818 	ldr	r2, [r2, #2072]
51402678:	e5913000 	ldr	r3, [r1]
5140267c:	e3c22002 	bic	r2, r2, #2	; 0x2
51402680:	e182200c 	orr	r2, r2, ip
51402684:	e5832818 	str	r2, [r3, #2072]
51402688:	e5912000 	ldr	r2, [r1]
5140268c:	e5922810 	ldr	r2, [r2, #2064]
51402690:	e5913000 	ldr	r3, [r1]
51402694:	e3c220f0 	bic	r2, r2, #240	; 0xf0
51402698:	e3822010 	orr	r2, r2, #16	; 0x10
5140269c:	e5832810 	str	r2, [r3, #2064]
514026a0:	ea00000a 	b	514026d0 <__oldboot_ram_start+0x26d0>
514026a4:	e5912000 	ldr	r2, [r1]
514026a8:	e592281c 	ldr	r2, [r2, #2076]
514026ac:	e5913000 	ldr	r3, [r1]
514026b0:	e3c2200c 	bic	r2, r2, #12	; 0xc
514026b4:	e3822008 	orr	r2, r2, #8	; 0x8
514026b8:	e583281c 	str	r2, [r3, #2076]
514026bc:	e5912000 	ldr	r2, [r1]
514026c0:	e5922810 	ldr	r2, [r2, #2064]
514026c4:	e5913000 	ldr	r3, [r1]
514026c8:	e3c220f0 	bic	r2, r2, #240	; 0xf0
514026cc:	e5832810 	str	r2, [r3, #2064]
514026d0:	e2000004 	and	r0, r0, #4	; 0x4
514026d4:	e1a00120 	mov	r0, r0, lsr #2
514026d8:	e3500000 	cmp	r0, #0	; 0x0
514026dc:	1a00000c 	bne	51402714 <__oldboot_ram_start+0x2714>
514026e0:	e5910000 	ldr	r0, [r1]
514026e4:	e5900818 	ldr	r0, [r0, #2072]
514026e8:	e5912000 	ldr	r2, [r1]
514026ec:	e3c00004 	bic	r0, r0, #4	; 0x4
514026f0:	e180000c 	orr	r0, r0, ip
514026f4:	e5820818 	str	r0, [r2, #2072]
514026f8:	e5910000 	ldr	r0, [r1]
514026fc:	e5900810 	ldr	r0, [r0, #2064]
51402700:	e5911000 	ldr	r1, [r1]
51402704:	e3c00c0f 	bic	r0, r0, #3840	; 0xf00
51402708:	e3800c01 	orr	r0, r0, #256	; 0x100
5140270c:	e5810810 	str	r0, [r1, #2064]
51402710:	e12fff1e 	bx	lr
51402714:	e5910000 	ldr	r0, [r1]
51402718:	e590081c 	ldr	r0, [r0, #2076]
5140271c:	e5912000 	ldr	r2, [r1]
51402720:	e3c00030 	bic	r0, r0, #48	; 0x30
51402724:	e3800020 	orr	r0, r0, #32	; 0x20
51402728:	e582081c 	str	r0, [r2, #2076]
5140272c:	e5910000 	ldr	r0, [r1]
51402730:	e5900810 	ldr	r0, [r0, #2064]
51402734:	e5911000 	ldr	r1, [r1]
51402738:	e3c00c0f 	bic	r0, r0, #3840	; 0xf00
5140273c:	e5810810 	str	r0, [r1, #2064]
51402740:	eafffff2 	b	51402710 <__oldboot_ram_start+0x2710>
51402744:	e59f0380 	ldr	r0, [pc, #896]	; 51402acc <__oldboot_ram_start+0x2acc>
51402748:	e590000c 	ldr	r0, [r0, #12]
5140274c:	e12fff1e 	bx	lr
51402750:	e59f3374 	ldr	r3, [pc, #884]	; 51402acc <__oldboot_ram_start+0x2acc>
51402754:	e5932004 	ldr	r2, [r3, #4]
51402758:	e1a02822 	mov	r2, r2, lsr #16
5140275c:	e1a02802 	mov	r2, r2, lsl #16
51402760:	e1820000 	orr	r0, r2, r0
51402764:	e1800401 	orr	r0, r0, r1, lsl #8
51402768:	e5830004 	str	r0, [r3, #4]
5140276c:	e12fff1e 	bx	lr
51402770:	e92d47f0 	stmdb	sp!, {r4, r5, r6, r7, r8, r9, sl, lr}
51402774:	e59f0358 	ldr	r0, [pc, #856]	; 51402ad4 <__oldboot_ram_start+0x2ad4>
51402778:	e59f1350 	ldr	r1, [pc, #848]	; 51402ad0 <__oldboot_ram_start+0x2ad0>
5140277c:	e5801010 	str	r1, [r0, #16]
51402780:	e3a0100c 	mov	r1, #12	; 0xc
51402784:	e5801000 	str	r1, [r0]
51402788:	e2400a02 	sub	r0, r0, #8192	; 0x2000
5140278c:	e5901810 	ldr	r1, [r0, #2064]
51402790:	e1a01621 	mov	r1, r1, lsr #12
51402794:	e1a01601 	mov	r1, r1, lsl #12
51402798:	e3811c03 	orr	r1, r1, #768	; 0x300
5140279c:	e3811033 	orr	r1, r1, #51	; 0x33
514027a0:	e5801810 	str	r1, [r0, #2064]
514027a4:	e5901804 	ldr	r1, [r0, #2052]
514027a8:	e1a01621 	mov	r1, r1, lsr #12
514027ac:	e1a01601 	mov	r1, r1, lsl #12
514027b0:	e3811c03 	orr	r1, r1, #768	; 0x300
514027b4:	e3811033 	orr	r1, r1, #51	; 0x33
514027b8:	e5801804 	str	r1, [r0, #2052]
514027bc:	e3a01000 	mov	r1, #0	; 0x0
514027c0:	e3a00000 	mov	r0, #0	; 0x0
514027c4:	ebffff88 	bl	514025ec <__oldboot_ram_start+0x25ec>
514027c8:	e3a06000 	mov	r6, #0	; 0x0
514027cc:	e59f9304 	ldr	r9, [pc, #772]	; 51402ad8 <__oldboot_ram_start+0x2ad8>
514027d0:	e3a07001 	mov	r7, #1	; 0x1
514027d4:	e3a01003 	mov	r1, #3	; 0x3
514027d8:	e1a00006 	mov	r0, r6
514027dc:	eb00f5c1 	bl	5143fee8 <__oldboot_ram_start+0x3fee8>
514027e0:	e1a05001 	mov	r5, r1
514027e4:	e3a04000 	mov	r4, #0	; 0x0
514027e8:	e1a08517 	mov	r8, r7, lsl r5
514027ec:	e1e00417 	mvn	r0, r7, lsl r4
514027f0:	e20000ff 	and	r0, r0, #255	; 0xff
514027f4:	e3a01000 	mov	r1, #0	; 0x0
514027f8:	ebffff7b 	bl	514025ec <__oldboot_ram_start+0x25ec>
514027fc:	e3a0000f 	mov	r0, #15	; 0xf
51402800:	eb00b9de 	bl	51430f80 <__oldboot_ram_start+0x30f80>
51402804:	ebffffce 	bl	51402744 <__oldboot_ram_start+0x2744>
51402808:	e20000ff 	and	r0, r0, #255	; 0xff
5140280c:	e1d80000 	bics	r0, r8, r0
51402810:	0a000007 	beq	51402834 <__oldboot_ram_start+0x2834>
51402814:	e0851085 	add	r1, r5, r5, lsl #1
51402818:	e0812004 	add	r2, r1, r4
5140281c:	e7d92002 	ldrb	r2, [r9, r2]
51402820:	e3520000 	cmp	r2, #0	; 0x0
51402824:	1a000002 	bne	51402834 <__oldboot_ram_start+0x2834>
51402828:	e20420ff 	and	r2, r4, #255	; 0xff
5140282c:	e0811002 	add	r1, r1, r2
51402830:	e7c97001 	strb	r7, [r9, r1]
51402834:	e3500000 	cmp	r0, #0	; 0x0
51402838:	1a000008 	bne	51402860 <__oldboot_ram_start+0x2860>
5140283c:	e0850085 	add	r0, r5, r5, lsl #1
51402840:	e0801004 	add	r1, r0, r4
51402844:	e7d91001 	ldrb	r1, [r9, r1]
51402848:	e3510001 	cmp	r1, #1	; 0x1
5140284c:	1a000003 	bne	51402860 <__oldboot_ram_start+0x2860>
51402850:	e20410ff 	and	r1, r4, #255	; 0xff
51402854:	e0800001 	add	r0, r0, r1
51402858:	e3a02000 	mov	r2, #0	; 0x0
5140285c:	e7c92000 	strb	r2, [r9, r0]
51402860:	e2844001 	add	r4, r4, #1	; 0x1
51402864:	e3540003 	cmp	r4, #3	; 0x3
51402868:	3affffdf 	bcc	514027ec <__oldboot_ram_start+0x27ec>
5140286c:	e2866001 	add	r6, r6, #1	; 0x1
51402870:	e356000c 	cmp	r6, #12	; 0xc
51402874:	3affffd6 	bcc	514027d4 <__oldboot_ram_start+0x27d4>
51402878:	e8bd87f0 	ldmia	sp!, {r4, r5, r6, r7, r8, r9, sl, pc}
5140287c:	e92d4010 	stmdb	sp!, {r4, lr}
51402880:	e59f0250 	ldr	r0, [pc, #592]	; 51402ad8 <__oldboot_ram_start+0x2ad8>
51402884:	e5d01004 	ldrb	r1, [r0, #4]
51402888:	e3510001 	cmp	r1, #1	; 0x1
5140288c:	1a000009 	bne	514028b8 <__oldboot_ram_start+0x28b8>
51402890:	e5d02007 	ldrb	r2, [r0, #7]
51402894:	e3520001 	cmp	r2, #1	; 0x1
51402898:	1a000006 	bne	514028b8 <__oldboot_ram_start+0x28b8>
5140289c:	e5d03003 	ldrb	r3, [r0, #3]
514028a0:	e3530000 	cmp	r3, #0	; 0x0
514028a4:	1a000003 	bne	514028b8 <__oldboot_ram_start+0x28b8>
514028a8:	e28f0f8b 	add	r0, pc, #556	; 0x22c
514028ac:	eb00032c 	bl	51403564 <__oldboot_ram_start+0x3564>
514028b0:	e3a00001 	mov	r0, #1	; 0x1
514028b4:	e8bd8010 	ldmia	sp!, {r4, pc}
514028b8:	e5d00001 	ldrb	r0, [r0, #1]
514028bc:	e3500001 	cmp	r0, #1	; 0x1
514028c0:	1a000003 	bne	514028d4 <__oldboot_ram_start+0x28d4>
514028c4:	e3a00008 	mov	r0, #8	; 0x8
514028c8:	eb0008ef 	bl	51404c8c <__oldboot_ram_start+0x4c8c>
514028cc:	e3a00000 	mov	r0, #0	; 0x0
514028d0:	eafffff7 	b	514028b4 <__oldboot_ram_start+0x28b4>
514028d4:	e3a00008 	mov	r0, #8	; 0x8
514028d8:	eb0008b1 	bl	51404ba4 <__oldboot_ram_start+0x4ba4>
514028dc:	e3500001 	cmp	r0, #1	; 0x1
514028e0:	1a000001 	bne	514028ec <__oldboot_ram_start+0x28ec>
514028e4:	e3a00001 	mov	r0, #1	; 0x1
514028e8:	eafffff1 	b	514028b4 <__oldboot_ram_start+0x28b4>
514028ec:	e3a00000 	mov	r0, #0	; 0x0
514028f0:	eaffffef 	b	514028b4 <__oldboot_ram_start+0x28b4>
514028f4:	e92d4010 	stmdb	sp!, {r4, lr}
514028f8:	e3a00008 	mov	r0, #8	; 0x8
514028fc:	eb0008a8 	bl	51404ba4 <__oldboot_ram_start+0x4ba4>
51402900:	e3500001 	cmp	r0, #1	; 0x1
51402904:	1a000002 	bne	51402914 <__oldboot_ram_start+0x2914>
51402908:	e8bd4010 	ldmia	sp!, {r4, lr}
5140290c:	e3a00008 	mov	r0, #8	; 0x8
51402910:	ea0008dd 	b	51404c8c <__oldboot_ram_start+0x4c8c>
51402914:	e8bd8010 	ldmia	sp!, {r4, pc}
51402918:	e92d4010 	stmdb	sp!, {r4, lr}
5140291c:	e59f01b4 	ldr	r0, [pc, #436]	; 51402ad8 <__oldboot_ram_start+0x2ad8>
51402920:	e5d01000 	ldrb	r1, [r0]
51402924:	e3510001 	cmp	r1, #1	; 0x1
51402928:	1a000006 	bne	51402948 <__oldboot_ram_start+0x2948>
5140292c:	e5d02001 	ldrb	r2, [r0, #1]
51402930:	e3520001 	cmp	r2, #1	; 0x1
51402934:	1a000003 	bne	51402948 <__oldboot_ram_start+0x2948>
51402938:	e28f0f6e 	add	r0, pc, #440	; 0x1b8
5140293c:	eb000308 	bl	51403564 <__oldboot_ram_start+0x3564>
51402940:	e3a00001 	mov	r0, #1	; 0x1
51402944:	e8bd8010 	ldmia	sp!, {r4, pc}
51402948:	e3a00000 	mov	r0, #0	; 0x0
5140294c:	eafffffc 	b	51402944 <__oldboot_ram_start+0x2944>
51402950:	e92d4010 	stmdb	sp!, {r4, lr}
51402954:	e59f017c 	ldr	r0, [pc, #380]	; 51402ad8 <__oldboot_ram_start+0x2ad8>
51402958:	e5d01003 	ldrb	r1, [r0, #3]
5140295c:	e3510001 	cmp	r1, #1	; 0x1
51402960:	1a000008 	bne	51402988 <__oldboot_ram_start+0x2988>
51402964:	e5d03004 	ldrb	r3, [r0, #4]
51402968:	e3530001 	cmp	r3, #1	; 0x1
5140296c:	1a000005 	bne	51402988 <__oldboot_ram_start+0x2988>
51402970:	e5d02008 	ldrb	r2, [r0, #8]
51402974:	e5d01002 	ldrb	r1, [r0, #2]
51402978:	e28f0f66 	add	r0, pc, #408	; 0x198
5140297c:	eb0002f8 	bl	51403564 <__oldboot_ram_start+0x3564>
51402980:	e3a00001 	mov	r0, #1	; 0x1
51402984:	e8bd8010 	ldmia	sp!, {r4, pc}
51402988:	e3a00000 	mov	r0, #0	; 0x0
5140298c:	eafffffc 	b	51402984 <__oldboot_ram_start+0x2984>
51402990:	e92d4010 	stmdb	sp!, {r4, lr}
51402994:	eb004ae8 	bl	5141553c <__oldboot_ram_start+0x1553c>
51402998:	e3500019 	cmp	r0, #25	; 0x19
5140299c:	1a000001 	bne	514029a8 <__oldboot_ram_start+0x29a8>
514029a0:	e3a00001 	mov	r0, #1	; 0x1
514029a4:	e8bd8010 	ldmia	sp!, {r4, pc}
514029a8:	e3a00000 	mov	r0, #0	; 0x0
514029ac:	eafffffc 	b	514029a4 <__oldboot_ram_start+0x29a4>
514029b0:	e92d4070 	stmdb	sp!, {r4, r5, r6, lr}
514029b4:	e3a01000 	mov	r1, #0	; 0x0
514029b8:	e3a000a1 	mov	r0, #161	; 0xa1
514029bc:	eb00d5ad 	bl	51438078 <__oldboot_ram_start+0x38078>
514029c0:	e3a01000 	mov	r1, #0	; 0x0
514029c4:	e3a000a2 	mov	r0, #162	; 0xa2
514029c8:	eb00d5aa 	bl	51438078 <__oldboot_ram_start+0x38078>
514029cc:	e3a01000 	mov	r1, #0	; 0x0
514029d0:	e3a000ba 	mov	r0, #186	; 0xba
514029d4:	eb00d5a7 	bl	51438078 <__oldboot_ram_start+0x38078>
514029d8:	e3a000a1 	mov	r0, #161	; 0xa1
514029dc:	eb00d5df 	bl	51438160 <__oldboot_ram_start+0x38160>
514029e0:	e1a04000 	mov	r4, r0
514029e4:	e3a000a2 	mov	r0, #162	; 0xa2
514029e8:	eb00d5dc 	bl	51438160 <__oldboot_ram_start+0x38160>
514029ec:	e1a05000 	mov	r5, r0
514029f0:	e3a000ba 	mov	r0, #186	; 0xba
514029f4:	eb00d5d9 	bl	51438160 <__oldboot_ram_start+0x38160>
514029f8:	e1941005 	orrs	r1, r4, r5
514029fc:	1a000003 	bne	51402a10 <__oldboot_ram_start+0x2a10>
51402a00:	e3500001 	cmp	r0, #1	; 0x1
51402a04:	1a000001 	bne	51402a10 <__oldboot_ram_start+0x2a10>
51402a08:	e3a00001 	mov	r0, #1	; 0x1
51402a0c:	e8bd8070 	ldmia	sp!, {r4, r5, r6, pc}
51402a10:	e3540000 	cmp	r4, #0	; 0x0
51402a14:	1a000005 	bne	51402a30 <__oldboot_ram_start+0x2a30>
51402a18:	e3550001 	cmp	r5, #1	; 0x1
51402a1c:	1a000003 	bne	51402a30 <__oldboot_ram_start+0x2a30>
51402a20:	e3500000 	cmp	r0, #0	; 0x0
51402a24:	1a000001 	bne	51402a30 <__oldboot_ram_start+0x2a30>
51402a28:	e3a00002 	mov	r0, #2	; 0x2
51402a2c:	eafffff6 	b	51402a0c <__oldboot_ram_start+0x2a0c>
51402a30:	e1911000 	orrs	r1, r1, r0
51402a34:	1a000001 	bne	51402a40 <__oldboot_ram_start+0x2a40>
51402a38:	e3a00003 	mov	r0, #3	; 0x3
51402a3c:	eafffff2 	b	51402a0c <__oldboot_ram_start+0x2a0c>
51402a40:	e3540000 	cmp	r4, #0	; 0x0
51402a44:	1a000005 	bne	51402a60 <__oldboot_ram_start+0x2a60>
51402a48:	e3550001 	cmp	r5, #1	; 0x1
51402a4c:	1a000003 	bne	51402a60 <__oldboot_ram_start+0x2a60>
51402a50:	e3500001 	cmp	r0, #1	; 0x1
51402a54:	1a000001 	bne	51402a60 <__oldboot_ram_start+0x2a60>
51402a58:	e3a00004 	mov	r0, #4	; 0x4
51402a5c:	eaffffea 	b	51402a0c <__oldboot_ram_start+0x2a0c>
51402a60:	e3540001 	cmp	r4, #1	; 0x1
51402a64:	1a000005 	bne	51402a80 <__oldboot_ram_start+0x2a80>
51402a68:	e3550000 	cmp	r5, #0	; 0x0
51402a6c:	1a000003 	bne	51402a80 <__oldboot_ram_start+0x2a80>
51402a70:	e3500000 	cmp	r0, #0	; 0x0
51402a74:	1a000001 	bne	51402a80 <__oldboot_ram_start+0x2a80>
51402a78:	e3a00005 	mov	r0, #5	; 0x5
51402a7c:	eaffffe2 	b	51402a0c <__oldboot_ram_start+0x2a0c>
51402a80:	e3540001 	cmp	r4, #1	; 0x1
51402a84:	1a000005 	bne	51402aa0 <__oldboot_ram_start+0x2aa0>
51402a88:	e3550000 	cmp	r5, #0	; 0x0
51402a8c:	1a000003 	bne	51402aa0 <__oldboot_ram_start+0x2aa0>
51402a90:	e3500001 	cmp	r0, #1	; 0x1
51402a94:	1a000001 	bne	51402aa0 <__oldboot_ram_start+0x2aa0>
51402a98:	e3a00006 	mov	r0, #6	; 0x6
51402a9c:	eaffffda 	b	51402a0c <__oldboot_ram_start+0x2a0c>
51402aa0:	e3540001 	cmp	r4, #1	; 0x1
51402aa4:	1a000005 	bne	51402ac0 <__oldboot_ram_start+0x2ac0>
51402aa8:	e3550001 	cmp	r5, #1	; 0x1
51402aac:	1a000003 	bne	51402ac0 <__oldboot_ram_start+0x2ac0>
51402ab0:	e3500000 	cmp	r0, #0	; 0x0
51402ab4:	1a000001 	bne	51402ac0 <__oldboot_ram_start+0x2ac0>
51402ab8:	e3a00007 	mov	r0, #7	; 0x7
51402abc:	eaffffd2 	b	51402a0c <__oldboot_ram_start+0x2a0c>
51402ac0:	e3a00000 	mov	r0, #0	; 0x0
51402ac4:	eaffffd0 	b	51402a0c <__oldboot_ram_start+0x2a0c>
51402ac8:	514431e4 	smlalttpl	r3, r4, r4, r1
51402acc:	7e00a000 	cdpvc	0, 0, cr10, cr0, cr0, {0}
51402ad0:	000003ff 	streqd	r0, [r0], -pc
51402ad4:	7f00a000 	svcvc	0x0000a000
51402ad8:	51448000 	cmppl	r4, r0
51402adc:	746f6f42 	strvcbt	r6, [pc], #3906	; 51402ae4 <__oldboot_ram_start+0x2ae4>
51402ae0:	4b4d5046 	blmi	52756c00 <__oldboot_ram_start+0x1356c00>
51402ae4:	68437965 	stmvsda	r3, {r0, r2, r5, r6, r8, fp, ip, sp, lr}^
51402ae8:	206b6365 	rsbcs	r6, fp, r5, ror #6
51402aec:	6425203d 	strvst	r2, [r5], #-61
51402af0:	6425202c 	strvst	r2, [r5], #-44
51402af4:	00000a20 	andeq	r0, r0, r0, lsr #20
51402af8:	746f6f42 	strvcbt	r6, [pc], #3906	; 51402b00 <__oldboot_ram_start+0x2b00>
51402afc:	75626544 	strvcb	r6, [r2, #-1348]!
51402b00:	79654b67 	stmvcdb	r5!, {r0, r1, r2, r5, r6, r8, r9, fp, lr}^
51402b04:	63656843 	cmnvs	r5, #4390912	; 0x430000
51402b08:	203d206b 	eorcss	r2, sp, fp, rrx
51402b0c:	202c6425 	eorcs	r6, ip, r5, lsr #8
51402b10:	0a206425 	beq	51c1bbac <__oldboot_ram_start+0x81bbac>
51402b14:	00000000 	andeq	r0, r0, r0
51402b18:	746f6f42 	strvcbt	r6, [pc], #3906	; 51402b20 <__oldboot_ram_start+0x2b20>
51402b1c:	6e776f44 	cdpvs	15, 7, cr6, cr7, cr4, {2}
51402b20:	64616f4c 	strvsbt	r6, [r1], #-3916
51402b24:	4379654b 	cmnmi	r9, #314572800	; 0x12c00000
51402b28:	6b636568 	blvs	52cdc0d0 <__oldboot_ram_start+0x18dc0d0>
51402b2c:	25203d20 	strcs	r3, [r0, #-3360]!
51402b30:	25202c64 	strcs	r2, [r0, #-3172]!
51402b34:	25202c64 	strcs	r2, [r0, #-3172]!
51402b38:	000a2064 	andeq	r2, sl, r4, rrx
51402b3c:	e92d4010 	stmdb	sp!, {r4, lr}
51402b40:	eb004a1d 	bl	514153bc <__oldboot_ram_start+0x153bc>
51402b44:	e3500006 	cmp	r0, #6	; 0x6
51402b48:	3a000002 	bcc	51402b58 <__oldboot_ram_start+0x2b58>
51402b4c:	e3a01001 	mov	r1, #1	; 0x1
51402b50:	e3a000d0 	mov	r0, #208	; 0xd0
51402b54:	eb005c4d 	bl	51419c90 <__oldboot_ram_start+0x19c90>
51402b58:	eb006046 	bl	5141ac78 <__oldboot_ram_start+0x1ac78>
51402b5c:	e3a01001 	mov	r1, #1	; 0x1
51402b60:	e3a00016 	mov	r0, #22	; 0x16
51402b64:	eb00d543 	bl	51438078 <__oldboot_ram_start+0x38078>
51402b68:	e3a01000 	mov	r1, #0	; 0x0
51402b6c:	e3a00016 	mov	r0, #22	; 0x16
51402b70:	eb00d560 	bl	514380f8 <__oldboot_ram_start+0x380f8>
51402b74:	e3a01001 	mov	r1, #1	; 0x1
51402b78:	e3a000b0 	mov	r0, #176	; 0xb0
51402b7c:	eb00d53d 	bl	51438078 <__oldboot_ram_start+0x38078>
51402b80:	e3a01000 	mov	r1, #0	; 0x0
51402b84:	e3a000b0 	mov	r0, #176	; 0xb0
51402b88:	eb00d55a 	bl	514380f8 <__oldboot_ram_start+0x380f8>
51402b8c:	eafffffe 	b	51402b8c <__oldboot_ram_start+0x2b8c>
51402b90:	e92d47f0 	stmdb	sp!, {r4, r5, r6, r7, r8, r9, sl, lr}
51402b94:	e51f5944 	ldr	r5, [pc, #-2372]	; 51402258 <__oldboot_ram_start+0x2258>
51402b98:	e3a07001 	mov	r7, #1	; 0x1
51402b9c:	e5c57000 	strb	r7, [r5]
51402ba0:	eb0049f5 	bl	5141537c <__oldboot_ram_start+0x1537c>
51402ba4:	eb0049f2 	bl	51415374 <__oldboot_ram_start+0x15374>
51402ba8:	e1a04000 	mov	r4, r0
51402bac:	ebffff7f 	bl	514029b0 <__oldboot_ram_start+0x29b0>
51402bb0:	e5840030 	str	r0, [r4, #48]
51402bb4:	e1a01000 	mov	r1, r0
51402bb8:	e28f0e2f 	add	r0, pc, #752	; 0x2f0
51402bbc:	eb000268 	bl	51403564 <__oldboot_ram_start+0x3564>
51402bc0:	e3a08000 	mov	r8, #0	; 0x0
51402bc4:	e5848014 	str	r8, [r4, #20]
51402bc8:	e584801c 	str	r8, [r4, #28]
51402bcc:	e5848024 	str	r8, [r4, #36]
51402bd0:	e5848018 	str	r8, [r4, #24]
51402bd4:	eb005fba 	bl	5141aac4 <__oldboot_ram_start+0x1aac4>
51402bd8:	e584000c 	str	r0, [r4, #12]
51402bdc:	e1a01000 	mov	r1, r0
51402be0:	e28f0fba 	add	r0, pc, #744	; 0x2e8
51402be4:	eb00025e 	bl	51403564 <__oldboot_ram_start+0x3564>
51402be8:	eb0049e4 	bl	51415380 <__oldboot_ram_start+0x15380>
51402bec:	eb006011 	bl	5141ac38 <__oldboot_ram_start+0x1ac38>
51402bf0:	e59f02f0 	ldr	r0, [pc, #752]	; 51402ee8 <__oldboot_ram_start+0x2ee8>
51402bf4:	eb00b8e1 	bl	51430f80 <__oldboot_ram_start+0x30f80>
51402bf8:	eb004aed 	bl	514157b4 <__oldboot_ram_start+0x157b4>
51402bfc:	e1a06000 	mov	r6, r0
51402c00:	e5940004 	ldr	r0, [r4, #4]
51402c04:	e51f16c8 	ldr	r1, [pc, #-1736]	; 51402544 <__oldboot_ram_start+0x2544>
51402c08:	e1500001 	cmp	r0, r1
51402c0c:	1a00000c 	bne	51402c44 <__oldboot_ram_start+0x2c44>
51402c10:	e3a00008 	mov	r0, #8	; 0x8
51402c14:	e5c50000 	strb	r0, [r5]
51402c18:	e5848004 	str	r8, [r4, #4]
51402c1c:	e5848008 	str	r8, [r4, #8]
51402c20:	e5848010 	str	r8, [r4, #16]
51402c24:	e5848034 	str	r8, [r4, #52]
51402c28:	eb004a12 	bl	51415478 <__oldboot_ram_start+0x15478>
51402c2c:	e3500000 	cmp	r0, #0	; 0x0
51402c30:	1a0000d0 	bne	51402f78 <__oldboot_ram_start+0x2f78>
51402c34:	e8bd47f0 	ldmia	sp!, {r4, r5, r6, r7, r8, r9, sl, lr}
51402c38:	e3a01001 	mov	r1, #1	; 0x1
51402c3c:	e3a00002 	mov	r0, #2	; 0x2
51402c40:	ea005fbe 	b	5141ab40 <__oldboot_ram_start+0x1ab40>
51402c44:	eb004a0b 	bl	51415478 <__oldboot_ram_start+0x15478>
51402c48:	e3500000 	cmp	r0, #0	; 0x0
51402c4c:	1a000012 	bne	51402c9c <__oldboot_ram_start+0x2c9c>
51402c50:	e5940030 	ldr	r0, [r4, #48]
51402c54:	e3500006 	cmp	r0, #6	; 0x6
51402c58:	3a00000f 	bcc	51402c9c <__oldboot_ram_start+0x2c9c>
51402c5c:	e3a00069 	mov	r0, #105	; 0x69
51402c60:	eb00d53e 	bl	51438160 <__oldboot_ram_start+0x38160>
51402c64:	e3500000 	cmp	r0, #0	; 0x0
51402c68:	0a00000b 	beq	51402c9c <__oldboot_ram_start+0x2c9c>
51402c6c:	eb005f69 	bl	5141aa18 <__oldboot_ram_start+0x1aa18>
51402c70:	e3500000 	cmp	r0, #0	; 0x0
51402c74:	1a000002 	bne	51402c84 <__oldboot_ram_start+0x2c84>
51402c78:	eb005f6e 	bl	5141aa38 <__oldboot_ram_start+0x1aa38>
51402c7c:	e3500000 	cmp	r0, #0	; 0x0
51402c80:	1a000005 	bne	51402c9c <__oldboot_ram_start+0x2c9c>
51402c84:	e28f0e26 	add	r0, pc, #608	; 0x260
51402c88:	eb000235 	bl	51403564 <__oldboot_ram_start+0x3564>
51402c8c:	e3a01000 	mov	r1, #0	; 0x0
51402c90:	e3a00002 	mov	r0, #2	; 0x2
51402c94:	eb005fa9 	bl	5141ab40 <__oldboot_ram_start+0x1ab40>
51402c98:	ebffffa7 	bl	51402b3c <__oldboot_ram_start+0x2b3c>
51402c9c:	e5848004 	str	r8, [r4, #4]
51402ca0:	ebfffeb2 	bl	51402770 <__oldboot_ram_start+0x2770>
51402ca4:	e5940008 	ldr	r0, [r4, #8]
51402ca8:	e59f1254 	ldr	r1, [pc, #596]	; 51402f04 <__oldboot_ram_start+0x2f04>
51402cac:	e1500001 	cmp	r0, r1
51402cb0:	1a000001 	bne	51402cbc <__oldboot_ram_start+0x2cbc>
51402cb4:	e5848008 	str	r8, [r4, #8]
51402cb8:	ea000049 	b	51402de4 <__oldboot_ram_start+0x2de4>
51402cbc:	eb0049ed 	bl	51415478 <__oldboot_ram_start+0x15478>
51402cc0:	e3500000 	cmp	r0, #0	; 0x0
51402cc4:	0a000001 	beq	51402cd0 <__oldboot_ram_start+0x2cd0>
51402cc8:	e5c57000 	strb	r7, [r5]
51402ccc:	ea000044 	b	51402de4 <__oldboot_ram_start+0x2de4>
51402cd0:	e594000c 	ldr	r0, [r4, #12]
51402cd4:	e3100080 	tst	r0, #128	; 0x80
51402cd8:	0a00000f 	beq	51402d1c <__oldboot_ram_start+0x2d1c>
51402cdc:	e5848014 	str	r8, [r4, #20]
51402ce0:	e5c57000 	strb	r7, [r5]
51402ce4:	ebffff02 	bl	514028f4 <__oldboot_ram_start+0x28f4>
51402ce8:	e3a06000 	mov	r6, #0	; 0x0
51402cec:	eb005f59 	bl	5141aa58 <__oldboot_ram_start+0x1aa58>
51402cf0:	e3500000 	cmp	r0, #0	; 0x0
51402cf4:	1a000002 	bne	51402d04 <__oldboot_ram_start+0x2d04>
51402cf8:	e28f0f82 	add	r0, pc, #520	; 0x208
51402cfc:	eb000218 	bl	51403564 <__oldboot_ram_start+0x3564>
51402d00:	ebffff8d 	bl	51402b3c <__oldboot_ram_start+0x2b3c>
51402d04:	e3a00ffa 	mov	r0, #1000	; 0x3e8
51402d08:	eb00b89c 	bl	51430f80 <__oldboot_ram_start+0x30f80>
51402d0c:	e2866001 	add	r6, r6, #1	; 0x1
51402d10:	e3560f7d 	cmp	r6, #500	; 0x1f4
51402d14:	bafffff4 	blt	51402cec <__oldboot_ram_start+0x2cec>
51402d18:	ea000031 	b	51402de4 <__oldboot_ram_start+0x2de4>
51402d1c:	e3560040 	cmp	r6, #64	; 0x40
51402d20:	e3a09002 	mov	r9, #2	; 0x2
51402d24:	0a000001 	beq	51402d30 <__oldboot_ram_start+0x2d30>
51402d28:	e3560004 	cmp	r6, #4	; 0x4
51402d2c:	1a00000b 	bne	51402d60 <__oldboot_ram_start+0x2d60>
51402d30:	e5c59000 	strb	r9, [r5]
51402d34:	e5847014 	str	r7, [r4, #20]
51402d38:	e3560040 	cmp	r6, #64	; 0x40
51402d3c:	1a000003 	bne	51402d50 <__oldboot_ram_start+0x2d50>
51402d40:	e3a01001 	mov	r1, #1	; 0x1
51402d44:	e3a00001 	mov	r0, #1	; 0x1
51402d48:	eb005f7c 	bl	5141ab40 <__oldboot_ram_start+0x1ab40>
51402d4c:	ea000024 	b	51402de4 <__oldboot_ram_start+0x2de4>
51402d50:	e3a01001 	mov	r1, #1	; 0x1
51402d54:	e3a00002 	mov	r0, #2	; 0x2
51402d58:	eb005f78 	bl	5141ab40 <__oldboot_ram_start+0x1ab40>
51402d5c:	ea000020 	b	51402de4 <__oldboot_ram_start+0x2de4>
51402d60:	e3100702 	tst	r0, #524288	; 0x80000
51402d64:	0a000002 	beq	51402d74 <__oldboot_ram_start+0x2d74>
51402d68:	e3a00004 	mov	r0, #4	; 0x4
51402d6c:	e5c50000 	strb	r0, [r5]
51402d70:	ea00001b 	b	51402de4 <__oldboot_ram_start+0x2de4>
51402d74:	e5940030 	ldr	r0, [r4, #48]
51402d78:	e3500006 	cmp	r0, #6	; 0x6
51402d7c:	3a000010 	bcc	51402dc4 <__oldboot_ram_start+0x2dc4>
51402d80:	eb005f24 	bl	5141aa18 <__oldboot_ram_start+0x1aa18>
51402d84:	e3500000 	cmp	r0, #0	; 0x0
51402d88:	0a000005 	beq	51402da4 <__oldboot_ram_start+0x2da4>
51402d8c:	e5c59000 	strb	r9, [r5]
51402d90:	e5847014 	str	r7, [r4, #20]
51402d94:	e3a01001 	mov	r1, #1	; 0x1
51402d98:	e3a00002 	mov	r0, #2	; 0x2
51402d9c:	eb005f67 	bl	5141ab40 <__oldboot_ram_start+0x1ab40>
51402da0:	ea00000f 	b	51402de4 <__oldboot_ram_start+0x2de4>
51402da4:	eb005f23 	bl	5141aa38 <__oldboot_ram_start+0x1aa38>
51402da8:	e3500000 	cmp	r0, #0	; 0x0
51402dac:	1a00000c 	bne	51402de4 <__oldboot_ram_start+0x2de4>
51402db0:	e594100c 	ldr	r1, [r4, #12]
51402db4:	e28f0f5b 	add	r0, pc, #364	; 0x16c
51402db8:	eb0001e9 	bl	51403564 <__oldboot_ram_start+0x3564>
51402dbc:	ebffff5e 	bl	51402b3c <__oldboot_ram_start+0x2b3c>
51402dc0:	ea000007 	b	51402de4 <__oldboot_ram_start+0x2de4>
51402dc4:	eb005f13 	bl	5141aa18 <__oldboot_ram_start+0x1aa18>
51402dc8:	e3500000 	cmp	r0, #0	; 0x0
51402dcc:	0a000004 	beq	51402de4 <__oldboot_ram_start+0x2de4>
51402dd0:	e5c59000 	strb	r9, [r5]
51402dd4:	e5847014 	str	r7, [r4, #20]
51402dd8:	e3a01001 	mov	r1, #1	; 0x1
51402ddc:	e3a00002 	mov	r0, #2	; 0x2
51402de0:	eb005f56 	bl	5141ab40 <__oldboot_ram_start+0x1ab40>
51402de4:	ebfffea4 	bl	5140287c <__oldboot_ram_start+0x287c>
51402de8:	e3500000 	cmp	r0, #0	; 0x0
51402dec:	1a000002 	bne	51402dfc <__oldboot_ram_start+0x2dfc>
51402df0:	eb0049ae 	bl	514154b0 <__oldboot_ram_start+0x154b0>
51402df4:	e3500000 	cmp	r0, #0	; 0x0
51402df8:	0a000003 	beq	51402e0c <__oldboot_ram_start+0x2e0c>
51402dfc:	e3a00040 	mov	r0, #64	; 0x40
51402e00:	e5c50000 	strb	r0, [r5]
51402e04:	e584701c 	str	r7, [r4, #28]
51402e08:	ea000000 	b	51402e10 <__oldboot_ram_start+0x2e10>
51402e0c:	e584801c 	str	r8, [r4, #28]
51402e10:	e594001c 	ldr	r0, [r4, #28]
51402e14:	e3500000 	cmp	r0, #0	; 0x0
51402e18:	1a000017 	bne	51402e7c <__oldboot_ram_start+0x2e7c>
51402e1c:	e5940010 	ldr	r0, [r4, #16]
51402e20:	e59f111c 	ldr	r1, [pc, #284]	; 51402f44 <__oldboot_ram_start+0x2f44>
51402e24:	e1500001 	cmp	r0, r1
51402e28:	0a000012 	beq	51402e78 <__oldboot_ram_start+0x2e78>
51402e2c:	ebfffec7 	bl	51402950 <__oldboot_ram_start+0x2950>
51402e30:	e3500000 	cmp	r0, #0	; 0x0
51402e34:	1a000006 	bne	51402e54 <__oldboot_ram_start+0x2e54>
51402e38:	e5940010 	ldr	r0, [r4, #16]
51402e3c:	e59f1104 	ldr	r1, [pc, #260]	; 51402f48 <__oldboot_ram_start+0x2f48>
51402e40:	e1500001 	cmp	r0, r1
51402e44:	0a000002 	beq	51402e54 <__oldboot_ram_start+0x2e54>
51402e48:	ebfffed0 	bl	51402990 <__oldboot_ram_start+0x2990>
51402e4c:	e3500000 	cmp	r0, #0	; 0x0
51402e50:	0a000002 	beq	51402e60 <__oldboot_ram_start+0x2e60>
51402e54:	e3a00010 	mov	r0, #16	; 0x10
51402e58:	e5c50000 	strb	r0, [r5]
51402e5c:	ea000005 	b	51402e78 <__oldboot_ram_start+0x2e78>
51402e60:	e5940010 	ldr	r0, [r4, #16]
51402e64:	e59f10e0 	ldr	r1, [pc, #224]	; 51402f4c <__oldboot_ram_start+0x2f4c>
51402e68:	e1500001 	cmp	r0, r1
51402e6c:	1a000001 	bne	51402e78 <__oldboot_ram_start+0x2e78>
51402e70:	e3a00020 	mov	r0, #32	; 0x20
51402e74:	e5c50000 	strb	r0, [r5]
51402e78:	e5848010 	str	r8, [r4, #16]
51402e7c:	e5d50000 	ldrb	r0, [r5]
51402e80:	e3500001 	cmp	r0, #1	; 0x1
51402e84:	1a000005 	bne	51402ea0 <__oldboot_ram_start+0x2ea0>
51402e88:	e3a00001 	mov	r0, #1	; 0x1
51402e8c:	eb000744 	bl	51404ba4 <__oldboot_ram_start+0x4ba4>
51402e90:	e3500001 	cmp	r0, #1	; 0x1
51402e94:	1a000001 	bne	51402ea0 <__oldboot_ram_start+0x2ea0>
51402e98:	e3a00080 	mov	r0, #128	; 0x80
51402e9c:	e5c50000 	strb	r0, [r5]
51402ea0:	e5d51000 	ldrb	r1, [r5]
51402ea4:	e8bd47f0 	ldmia	sp!, {r4, r5, r6, r7, r8, r9, sl, lr}
51402ea8:	e28f00a0 	add	r0, pc, #160	; 0xa0
51402eac:	ea0001ac 	b	51403564 <__oldboot_ram_start+0x3564>
51402eb0:	656c6553 	strvsb	r6, [ip, #-1363]!
51402eb4:	6f427463 	svcvs	0x00427463
51402eb8:	6e69746f 	cdpvs	4, 6, cr7, cr9, cr15, {3}
51402ebc:	646f4d67 	strvsbt	r4, [pc], #3431	; 51402ec4 <__oldboot_ram_start+0x2ec4>
51402ec0:	48203a65 	stmmida	r0!, {r0, r2, r5, r6, r9, fp, ip, sp}
51402ec4:	2e2e572f 	cdpcs	7, 2, cr5, cr14, cr15, {1}
51402ec8:	2578302e 	ldrcsb	r3, [r8, #-46]!
51402ecc:	000a2e78 	andeq	r2, sl, r8, ror lr
51402ed0:	65776f50 	ldrvsb	r6, [r7, #-3920]!
51402ed4:	206e6f72 	rsbcs	r6, lr, r2, ror pc
51402ed8:	74617473 	strvcbt	r7, [r1], #-1139
51402edc:	2d207375 	stccs	3, cr7, [r0, #-468]!
51402ee0:	0a782520 	beq	5320c368 <__aeabi_idiv0+0x208358>
51402ee4:	00000000 	andeq	r0, r0, r0
51402ee8:	000186a0 	andeq	r8, r1, r0, lsr #13
51402eec:	62206f6e 	eorvs	r6, r0, #440	; 0x1b8
51402ef0:	65747461 	ldrvsb	r7, [r4, #-1121]!
51402ef4:	2e2e7972 	mcrcs	9, 1, r7, cr14, cr2, {3}
51402ef8:	65776f70 	ldrvsb	r6, [r7, #-3952]!
51402efc:	6f642072 	svcvs	0x00642072
51402f00:	000a6e77 	andeq	r6, sl, r7, ror lr
51402f04:	12345678 	eornes	r5, r4, #125829120	; 0x7800000
51402f08:	6b646e65 	blvs	52d1e8a4 <__oldboot_ram_start+0x191e8a4>
51402f0c:	72207965 	eorvc	r7, r0, #1654784	; 0x194000
51402f10:	61656c65 	cmnvs	r5, r5, ror #24
51402f14:	2e646573 	mcrcs	5, 3, r6, cr4, cr3, {3}
51402f18:	776f702e 	strvcb	r7, [pc, -lr, lsr #32]!
51402f1c:	64207265 	strvst	r7, [r0], #-613
51402f20:	2e6e776f 	cdpcs	7, 6, cr7, cr14, cr15, {3}
51402f24:	00000a2e 	andeq	r0, r0, lr, lsr #20
51402f28:	6f6e6241 	svcvs	0x006e6241
51402f2c:	6c616d72 	stcvsl	13, cr6, [r1], #-456
51402f30:	6f6f6220 	svcvs	0x006f6220
51402f34:	74732074 	ldrvcbt	r2, [r3], #-116
51402f38:	73757461 	cmnvc	r5, #1627389952	; 0x61000000
51402f3c:	0a78253d 	beq	5320c438 <__aeabi_idiv0+0x208428>
51402f40:	00000000 	andeq	r0, r0, r0
51402f44:	fdabfdab 	stc2	13, cr15, [fp, #684]!
51402f48:	cafecafe 	bgt	513b5b48 <__system_ram_start+0x13b5b48>
51402f4c:	cebaceba 	mrcgt	14, 5, ip, cr10, cr10, {5}
51402f50:	656c6553 	strvsb	r6, [ip, #-1363]!
51402f54:	6f427463 	svcvs	0x00427463
51402f58:	6e69746f 	cdpvs	4, 6, cr7, cr9, cr15, {3}
51402f5c:	646f4d67 	strvsbt	r4, [pc], #3431	; 51402f64 <__oldboot_ram_start+0x2f64>
51402f60:	42203a65 	eormi	r3, r0, #413696	; 0x65000
51402f64:	20746f6f 	rsbcss	r6, r4, pc, ror #30
51402f68:	65646f4d 	strvsb	r6, [r4, #-3917]!
51402f6c:	25203d20 	strcs	r3, [r0, #-3360]!
51402f70:	2e2e2e78 	mcrcs	14, 1, r2, cr14, cr8, {3}
51402f74:	0000000a 	andeq	r0, r0, sl
51402f78:	e8bd87f0 	ldmia	sp!, {r4, r5, r6, r7, r8, r9, sl, pc}
51402f7c:	e92d4038 	stmdb	sp!, {r3, r4, r5, lr}
51402f80:	e3a01001 	mov	r1, #1	; 0x1
51402f84:	e3a00016 	mov	r0, #22	; 0x16
51402f88:	eb00d45a 	bl	514380f8 <__oldboot_ram_start+0x380f8>
51402f8c:	e3a01001 	mov	r1, #1	; 0x1
51402f90:	e3a00016 	mov	r0, #22	; 0x16
51402f94:	eb00d437 	bl	51438078 <__oldboot_ram_start+0x38078>
51402f98:	e3a01001 	mov	r1, #1	; 0x1
51402f9c:	e3a00016 	mov	r0, #22	; 0x16
51402fa0:	eb00d454 	bl	514380f8 <__oldboot_ram_start+0x380f8>
51402fa4:	e3a01001 	mov	r1, #1	; 0x1
51402fa8:	e3a000b0 	mov	r0, #176	; 0xb0
51402fac:	eb00d451 	bl	514380f8 <__oldboot_ram_start+0x380f8>
51402fb0:	e3a01001 	mov	r1, #1	; 0x1
51402fb4:	e3a000b0 	mov	r0, #176	; 0xb0
51402fb8:	eb00d42e 	bl	51438078 <__oldboot_ram_start+0x38078>
51402fbc:	e3a01001 	mov	r1, #1	; 0x1
51402fc0:	e3a000b0 	mov	r0, #176	; 0xb0
51402fc4:	eb00d44b 	bl	514380f8 <__oldboot_ram_start+0x380f8>
51402fc8:	e3a01002 	mov	r1, #2	; 0x2
51402fcc:	e3a00069 	mov	r0, #105	; 0x69
51402fd0:	eb00d47b 	bl	514381c4 <__oldboot_ram_start+0x381c4>
51402fd4:	e3a01000 	mov	r1, #0	; 0x0
51402fd8:	e3a00069 	mov	r0, #105	; 0x69
51402fdc:	eb00d425 	bl	51438078 <__oldboot_ram_start+0x38078>
51402fe0:	e59f021c 	ldr	r0, [pc, #540]	; 51403204 <__oldboot_ram_start+0x3204>
51402fe4:	e59f121c 	ldr	r1, [pc, #540]	; 51403208 <__oldboot_ram_start+0x3208>
51402fe8:	e1500001 	cmp	r0, r1
51402fec:	0a000003 	beq	51403000 <__oldboot_ram_start+0x3000>
51402ff0:	e2801000 	add	r1, r0, #0	; 0x0
51402ff4:	e59f020c 	ldr	r0, [pc, #524]	; 51403208 <__oldboot_ram_start+0x3208>
51402ff8:	e59f220c 	ldr	r2, [pc, #524]	; 5140320c <__oldboot_ram_start+0x320c>
51402ffc:	eb00b34d 	bl	5142fd38 <__oldboot_ram_start+0x2fd38>
51403000:	e59f2208 	ldr	r2, [pc, #520]	; 51403210 <__oldboot_ram_start+0x3210>
51403004:	e59f0208 	ldr	r0, [pc, #520]	; 51403214 <__oldboot_ram_start+0x3214>
51403008:	e3a01000 	mov	r1, #0	; 0x0
5140300c:	eb00b352 	bl	5142fd5c <__oldboot_ram_start+0x2fd5c>
51403010:	eb0048b8 	bl	514152f8 <__oldboot_ram_start+0x152f8>
51403014:	eb0048d6 	bl	51415374 <__oldboot_ram_start+0x15374>
51403018:	e1a04000 	mov	r4, r0
5140301c:	ebfffe63 	bl	514029b0 <__oldboot_ram_start+0x29b0>
51403020:	e5840030 	str	r0, [r4, #48]
51403024:	ebfffb04 	bl	51401c3c <__oldboot_ram_start+0x1c3c>
51403028:	e5941030 	ldr	r1, [r4, #48]
5140302c:	e28f0f79 	add	r0, pc, #484	; 0x1e4
51403030:	eb00014b 	bl	51403564 <__oldboot_ram_start+0x3564>
51403034:	e3a00069 	mov	r0, #105	; 0x69
51403038:	eb00d448 	bl	51438160 <__oldboot_ram_start+0x38160>
5140303c:	e3500000 	cmp	r0, #0	; 0x0
51403040:	0a000007 	beq	51403064 <__oldboot_ram_start+0x3064>
51403044:	e5940030 	ldr	r0, [r4, #48]
51403048:	e3500002 	cmp	r0, #2	; 0x2
5140304c:	3a000004 	bcc	51403064 <__oldboot_ram_start+0x3064>
51403050:	e1a0100d 	mov	r1, sp
51403054:	e3a0000f 	mov	r0, #15	; 0xf
51403058:	eb005b2b 	bl	51419d0c <__oldboot_ram_start+0x19d0c>
5140305c:	e28f0f72 	add	r0, pc, #456	; 0x1c8
51403060:	eb00013f 	bl	51403564 <__oldboot_ram_start+0x3564>
51403064:	ebfffec9 	bl	51402b90 <__oldboot_ram_start+0x2b90>
51403068:	e3a00001 	mov	r0, #1	; 0x1
5140306c:	eb005fab 	bl	5141af20 <__oldboot_ram_start+0x1af20>
51403070:	e3a00e7d 	mov	r0, #2000	; 0x7d0
51403074:	eb00b7c1 	bl	51430f80 <__oldboot_ram_start+0x30f80>
51403078:	ebfffaaa 	bl	51401b28 <__oldboot_ram_start+0x1b28>
5140307c:	e3a00000 	mov	r0, #0	; 0x0
51403080:	e5840024 	str	r0, [r4, #36]
51403084:	e51f0e34 	ldr	r0, [pc, #-3636]	; 51402258 <__oldboot_ram_start+0x2258>
51403088:	e5d00000 	ldrb	r0, [r0]
5140308c:	e3500010 	cmp	r0, #16	; 0x10
51403090:	0a000046 	beq	514031b0 <__oldboot_ram_start+0x31b0>
51403094:	ca00000c 	bgt	514030cc <__oldboot_ram_start+0x30cc>
51403098:	e3500001 	cmp	r0, #1	; 0x1
5140309c:	0a000013 	beq	514030f0 <__oldboot_ram_start+0x30f0>
514030a0:	e3500002 	cmp	r0, #2	; 0x2
514030a4:	0a00001f 	beq	51403128 <__oldboot_ram_start+0x3128>
514030a8:	e3500004 	cmp	r0, #4	; 0x4
514030ac:	0a00002a 	beq	5140315c <__oldboot_ram_start+0x315c>
514030b0:	e3500008 	cmp	r0, #8	; 0x8
514030b4:	1a00000b 	bne	514030e8 <__oldboot_ram_start+0x30e8>
514030b8:	eb00551b 	bl	5141852c <__oldboot_ram_start+0x1852c>
514030bc:	eb0059de 	bl	5141983c <__oldboot_ram_start+0x1983c>
514030c0:	eb00498a 	bl	514156f0 <__oldboot_ram_start+0x156f0>
514030c4:	eb00429d 	bl	51413b40 <__oldboot_ram_start+0x13b40>
514030c8:	ea000006 	b	514030e8 <__oldboot_ram_start+0x30e8>
514030cc:	e3500020 	cmp	r0, #32	; 0x20
514030d0:	0a000030 	beq	51403198 <__oldboot_ram_start+0x3198>
514030d4:	e3500040 	cmp	r0, #64	; 0x40
514030d8:	0a00003a 	beq	514031c8 <__oldboot_ram_start+0x31c8>
514030dc:	e3500080 	cmp	r0, #128	; 0x80
514030e0:	1a000000 	bne	514030e8 <__oldboot_ram_start+0x30e8>
514030e4:	eb005538 	bl	514185cc <__oldboot_ram_start+0x185cc>
514030e8:	ebfff9f2 	bl	514018b8 <__oldboot_ram_start+0x18b8>
514030ec:	e8bd8038 	ldmia	sp!, {r3, r4, r5, pc}
514030f0:	eb0054e1 	bl	5141847c <__oldboot_ram_start+0x1847c>
514030f4:	eb0054e7 	bl	51418498 <__oldboot_ram_start+0x18498>
514030f8:	eb0059cf 	bl	5141983c <__oldboot_ram_start+0x1983c>
514030fc:	e28f1f4d 	add	r1, pc, #308	; 0x134
51403100:	e3a00000 	mov	r0, #0	; 0x0
51403104:	eb000099 	bl	51403370 <__oldboot_ram_start+0x3370>
51403108:	e28f1f4b 	add	r1, pc, #300	; 0x12c
5140310c:	e3a00000 	mov	r0, #0	; 0x0
51403110:	eb000096 	bl	51403370 <__oldboot_ram_start+0x3370>
51403114:	e28f1f47 	add	r1, pc, #284	; 0x11c
51403118:	e3a00000 	mov	r0, #0	; 0x0
5140311c:	eb000093 	bl	51403370 <__oldboot_ram_start+0x3370>
51403120:	ebfffca0 	bl	514023a8 <__oldboot_ram_start+0x23a8>
51403124:	eaffffef 	b	514030e8 <__oldboot_ram_start+0x30e8>
51403128:	eb005531 	bl	514185f4 <__oldboot_ram_start+0x185f4>
5140312c:	eb0059c2 	bl	5141983c <__oldboot_ram_start+0x1983c>
51403130:	e28f1c01 	add	r1, pc, #256	; 0x100
51403134:	e3a00000 	mov	r0, #0	; 0x0
51403138:	eb00008c 	bl	51403370 <__oldboot_ram_start+0x3370>
5140313c:	e28f1f42 	add	r1, pc, #264	; 0x108
51403140:	e3a00000 	mov	r0, #0	; 0x0
51403144:	eb000089 	bl	51403370 <__oldboot_ram_start+0x3370>
51403148:	e28f10e8 	add	r1, pc, #232	; 0xe8
5140314c:	e3a00000 	mov	r0, #0	; 0x0
51403150:	eb000086 	bl	51403370 <__oldboot_ram_start+0x3370>
51403154:	ebfffc93 	bl	514023a8 <__oldboot_ram_start+0x23a8>
51403158:	eaffffe2 	b	514030e8 <__oldboot_ram_start+0x30e8>
5140315c:	eb0054c6 	bl	5141847c <__oldboot_ram_start+0x1847c>
51403160:	e59f00f8 	ldr	r0, [pc, #248]	; 51403260 <__oldboot_ram_start+0x3260>
51403164:	e5840024 	str	r0, [r4, #36]
51403168:	eb0059b3 	bl	5141983c <__oldboot_ram_start+0x1983c>
5140316c:	e28f10c4 	add	r1, pc, #196	; 0xc4
51403170:	e3a00000 	mov	r0, #0	; 0x0
51403174:	eb00007d 	bl	51403370 <__oldboot_ram_start+0x3370>
51403178:	e28f10e4 	add	r1, pc, #228	; 0xe4
5140317c:	e3a00000 	mov	r0, #0	; 0x0
51403180:	eb00007a 	bl	51403370 <__oldboot_ram_start+0x3370>
51403184:	e28f10ac 	add	r1, pc, #172	; 0xac
51403188:	e3a00000 	mov	r0, #0	; 0x0
5140318c:	eb000077 	bl	51403370 <__oldboot_ram_start+0x3370>
51403190:	ebfffc84 	bl	514023a8 <__oldboot_ram_start+0x23a8>
51403194:	eaffffd3 	b	514030e8 <__oldboot_ram_start+0x30e8>
51403198:	e3a01001 	mov	r1, #1	; 0x1
5140319c:	e3a00002 	mov	r0, #2	; 0x2
514031a0:	eb005e66 	bl	5141ab40 <__oldboot_ram_start+0x1ab40>
514031a4:	eb0054fe 	bl	514185a4 <__oldboot_ram_start+0x185a4>
514031a8:	eb003ffc 	bl	514131a0 <__oldboot_ram_start+0x131a0>
514031ac:	eaffffcd 	b	514030e8 <__oldboot_ram_start+0x30e8>
514031b0:	e3a01000 	mov	r1, #0	; 0x0
514031b4:	e3a00002 	mov	r0, #2	; 0x2
514031b8:	eb005e60 	bl	5141ab40 <__oldboot_ram_start+0x1ab40>
514031bc:	eb0054bd 	bl	514184b8 <__oldboot_ram_start+0x184b8>
514031c0:	eb003ff6 	bl	514131a0 <__oldboot_ram_start+0x131a0>
514031c4:	eaffffc7 	b	514030e8 <__oldboot_ram_start+0x30e8>
514031c8:	eb00551f 	bl	5141864c <__oldboot_ram_start+0x1864c>
514031cc:	eb00599a 	bl	5141983c <__oldboot_ram_start+0x1983c>
514031d0:	ebfffc74 	bl	514023a8 <__oldboot_ram_start+0x23a8>
514031d4:	eaffffc3 	b	514030e8 <__oldboot_ram_start+0x30e8>
514031d8:	e51f0f88 	ldr	r0, [pc, #-3976]	; 51402258 <__oldboot_ram_start+0x2258>
514031dc:	e5d01000 	ldrb	r1, [r0]
514031e0:	e59f0090 	ldr	r0, [pc, #144]	; 51403278 <__oldboot_ram_start+0x3278>
514031e4:	e3510008 	cmp	r1, #8	; 0x8
514031e8:	1a000002 	bne	514031f8 <__oldboot_ram_start+0x31f8>
514031ec:	e51f1cb0 	ldr	r1, [pc, #-3248]	; 51402544 <__oldboot_ram_start+0x2544>
514031f0:	e58017fc 	str	r1, [r0, #2044]
514031f4:	e12fff1e 	bx	lr
514031f8:	e3a01000 	mov	r1, #0	; 0x0
514031fc:	e58017fc 	str	r1, [r0, #2044]
51403200:	eafffffb 	b	514031f4 <__oldboot_ram_start+0x31f4>
51403204:	51446da0 	smlaltbpl	r6, r4, r0, sp
51403208:	51446da0 	smlaltbpl	r6, r4, r0, sp
5140320c:	00000000 	andeq	r0, r0, r0
51403210:	00207f9c 	mlaeq	r0, ip, pc, r7
51403214:	51446da0 	smlaltbpl	r6, r4, r0, sp
51403218:	746f6f42 	strvcbt	r6, [pc], #3906	; 51403220 <__oldboot_ram_start+0x3220>
5140321c:	68435748 	stmvsda	r3, {r3, r6, r8, r9, sl, ip, lr}^
51403220:	3a6b6365 	bcc	52edbfbc <__oldboot_ram_start+0x1adbfbc>
51403224:	2e642520 	cdpcs	5, 6, cr2, cr4, cr0, {1}
51403228:	000a2e2e 	andeq	r2, sl, lr, lsr #28
5140322c:	62204f4e 	eorvs	r4, r0, #312	; 0x138
51403230:	65747461 	ldrvsb	r7, [r4, #-1121]!
51403234:	000a7972 	andeq	r7, sl, r2, ror r9
51403238:	00000a0a 	andeq	r0, r0, sl, lsl #20
5140323c:	5f545341 	svcpl	0x00545341
51403240:	45574f50 	ldrmib	r4, [r7, #-3920]
51403244:	0a4e4f52 	beq	52796f94 <__oldboot_ram_start+0x1396f94>
51403248:	00000000 	andeq	r0, r0, r0
5140324c:	5f545341 	svcpl	0x00545341
51403250:	45574f50 	ldrmib	r4, [r7, #-3920]
51403254:	5f4e4f52 	svcpl	0x004e4f52
51403258:	0a4d504c 	beq	52757390 <__oldboot_ram_start+0x1357390>
5140325c:	00000000 	andeq	r0, r0, r0
51403260:	a5a55a5a 	strge	r5, [r5, #2650]!
51403264:	5f545341 	svcpl	0x00545341
51403268:	45574f50 	ldrmib	r4, [r7, #-3920]
5140326c:	5f4e4f52 	svcpl	0x004e4f52
51403270:	52414c41 	subpl	r4, r1, #16640	; 0x4100
51403274:	00000a4d 	andeq	r0, r0, sp, asr #20
51403278:	5dfff000 	ldcpll	0, cr15, [pc]
5140327c:	e92d4010 	stmdb	sp!, {r4, lr}
51403280:	eb00483b 	bl	51415374 <__oldboot_ram_start+0x15374>
51403284:	e51f1014 	ldr	r1, [pc, #-20]	; 51403278 <__oldboot_ram_start+0x3278>
51403288:	e5900030 	ldr	r0, [r0, #48]
5140328c:	e58107f8 	str	r0, [r1, #2040]
51403290:	e8bd8010 	ldmia	sp!, {r4, pc}
51403294:	e59f27a4 	ldr	r2, [pc, #1956]	; 51403a40 <__oldboot_ram_start+0x3a40>
51403298:	e5921000 	ldr	r1, [r2]
5140329c:	e3510000 	cmp	r1, #0	; 0x0
514032a0:	0a000003 	beq	514032b4 <__oldboot_ram_start+0x32b4>
514032a4:	e5c10000 	strb	r0, [r1]
514032a8:	e2810001 	add	r0, r1, #1	; 0x1
514032ac:	e5820000 	str	r0, [r2]
514032b0:	e12fff1e 	bx	lr
514032b4:	ea0002ff 	b	51403eb8 <__oldboot_ram_start+0x3eb8>
514032b8:	e92d4010 	stmdb	sp!, {r4, lr}
514032bc:	e1a04000 	mov	r4, r0
514032c0:	ea000005 	b	514032dc <__oldboot_ram_start+0x32dc>
514032c4:	e350000a 	cmp	r0, #10	; 0xa
514032c8:	1a000001 	bne	514032d4 <__oldboot_ram_start+0x32d4>
514032cc:	e3a0000d 	mov	r0, #13	; 0xd
514032d0:	eb0002f8 	bl	51403eb8 <__oldboot_ram_start+0x3eb8>
514032d4:	e4d40001 	ldrb	r0, [r4], #1
514032d8:	eb0002f6 	bl	51403eb8 <__oldboot_ram_start+0x3eb8>
514032dc:	e5d40000 	ldrb	r0, [r4]
514032e0:	e3500000 	cmp	r0, #0	; 0x0
514032e4:	1afffff6 	bne	514032c4 <__oldboot_ram_start+0x32c4>
514032e8:	e8bd8010 	ldmia	sp!, {r4, pc}
514032ec:	e92d4010 	stmdb	sp!, {r4, lr}
514032f0:	e350000a 	cmp	r0, #10	; 0xa
514032f4:	3a000004 	bcc	5140330c <__oldboot_ram_start+0x330c>
514032f8:	e3a0100a 	mov	r1, #10	; 0xa
514032fc:	eb00f2f9 	bl	5143fee8 <__oldboot_ram_start+0x3fee8>
51403300:	e1a04001 	mov	r4, r1
51403304:	ebfffff8 	bl	514032ec <__oldboot_ram_start+0x32ec>
51403308:	e1a00004 	mov	r0, r4
5140330c:	e2800030 	add	r0, r0, #48	; 0x30
51403310:	e8bd4010 	ldmia	sp!, {r4, lr}
51403314:	e20000ff 	and	r0, r0, #255	; 0xff
51403318:	eaffffdd 	b	51403294 <__oldboot_ram_start+0x3294>
5140331c:	e92d4010 	stmdb	sp!, {r4, lr}
51403320:	e1a04000 	mov	r4, r0
51403324:	e3510000 	cmp	r1, #0	; 0x0
51403328:	0a000000 	beq	51403330 <__oldboot_ram_start+0x3330>
5140332c:	e2411001 	sub	r1, r1, #1	; 0x1
51403330:	e3c4000f 	bic	r0, r4, #15	; 0xf
51403334:	e1900001 	orrs	r0, r0, r1
51403338:	0a000002 	beq	51403348 <__oldboot_ram_start+0x3348>
5140333c:	e1a00224 	mov	r0, r4, lsr #4
51403340:	ebfffff5 	bl	5140331c <__oldboot_ram_start+0x331c>
51403344:	e204400f 	and	r4, r4, #15	; 0xf
51403348:	e354000a 	cmp	r4, #10	; 0xa
5140334c:	2a000003 	bcs	51403360 <__oldboot_ram_start+0x3360>
51403350:	e2840030 	add	r0, r4, #48	; 0x30
51403354:	e8bd4010 	ldmia	sp!, {r4, lr}
51403358:	e20000ff 	and	r0, r0, #255	; 0xff
5140335c:	eaffffcc 	b	51403294 <__oldboot_ram_start+0x3294>
51403360:	e2840037 	add	r0, r4, #55	; 0x37
51403364:	e8bd4010 	ldmia	sp!, {r4, lr}
51403368:	e20000ff 	and	r0, r0, #255	; 0xff
5140336c:	eaffffc8 	b	51403294 <__oldboot_ram_start+0x3294>
51403370:	e92d000f 	stmdb	sp!, {r0, r1, r2, r3}
51403374:	e92d4038 	stmdb	sp!, {r3, r4, r5, lr}
51403378:	e59f16c4 	ldr	r1, [pc, #1732]	; 51403a44 <__oldboot_ram_start+0x3a44>
5140337c:	e5911000 	ldr	r1, [r1]
51403380:	e1500001 	cmp	r0, r1
51403384:	8a000074 	bhi	5140355c <__oldboot_ram_start+0x355c>
51403388:	e28d0018 	add	r0, sp, #24	; 0x18
5140338c:	e58d0000 	str	r0, [sp]
51403390:	ea00006d 	b	5140354c <__oldboot_ram_start+0x354c>
51403394:	e2800001 	add	r0, r0, #1	; 0x1
51403398:	e58d0014 	str	r0, [sp, #20]
5140339c:	e354000a 	cmp	r4, #10	; 0xa
514033a0:	0a000065 	beq	5140353c <__oldboot_ram_start+0x353c>
514033a4:	e354000d 	cmp	r4, #13	; 0xd
514033a8:	0a00005d 	beq	51403524 <__oldboot_ram_start+0x3524>
514033ac:	e3540025 	cmp	r4, #37	; 0x25
514033b0:	1a000063 	bne	51403544 <__oldboot_ram_start+0x3544>
514033b4:	e4d01001 	ldrb	r1, [r0], #1
514033b8:	e58d0014 	str	r0, [sp, #20]
514033bc:	e3510063 	cmp	r1, #99	; 0x63
514033c0:	0a00004c 	beq	514034f8 <__oldboot_ram_start+0x34f8>
514033c4:	ca00000f 	bgt	51403408 <__oldboot_ram_start+0x3408>
514033c8:	e3510025 	cmp	r1, #37	; 0x25
514033cc:	0a000046 	beq	514034ec <__oldboot_ram_start+0x34ec>
514033d0:	e3510042 	cmp	r1, #66	; 0x42
514033d4:	0a00001b 	beq	51403448 <__oldboot_ram_start+0x3448>
514033d8:	e3510048 	cmp	r1, #72	; 0x48
514033dc:	0a000021 	beq	51403468 <__oldboot_ram_start+0x3468>
514033e0:	e3510058 	cmp	r1, #88	; 0x58
514033e4:	1a00004b 	bne	51403518 <__oldboot_ram_start+0x3518>
514033e8:	e59d0000 	ldr	r0, [sp]
514033ec:	e59d1000 	ldr	r1, [sp]
514033f0:	e5900000 	ldr	r0, [r0]
514033f4:	e2811004 	add	r1, r1, #4	; 0x4
514033f8:	e58d1000 	str	r1, [sp]
514033fc:	e3a01008 	mov	r1, #8	; 0x8
51403400:	ebffffc5 	bl	5140331c <__oldboot_ram_start+0x331c>
51403404:	ea000050 	b	5140354c <__oldboot_ram_start+0x354c>
51403408:	e3510064 	cmp	r1, #100	; 0x64
5140340c:	0a00001d 	beq	51403488 <__oldboot_ram_start+0x3488>
51403410:	e3510073 	cmp	r1, #115	; 0x73
51403414:	0a00002d 	beq	514034d0 <__oldboot_ram_start+0x34d0>
51403418:	e3510075 	cmp	r1, #117	; 0x75
5140341c:	0a000024 	beq	514034b4 <__oldboot_ram_start+0x34b4>
51403420:	e3510078 	cmp	r1, #120	; 0x78
51403424:	1a00003b 	bne	51403518 <__oldboot_ram_start+0x3518>
51403428:	e59d0000 	ldr	r0, [sp]
5140342c:	e59d1000 	ldr	r1, [sp]
51403430:	e5900000 	ldr	r0, [r0]
51403434:	e2811004 	add	r1, r1, #4	; 0x4
51403438:	e58d1000 	str	r1, [sp]
5140343c:	e3a01000 	mov	r1, #0	; 0x0
51403440:	ebffffb5 	bl	5140331c <__oldboot_ram_start+0x331c>
51403444:	ea000040 	b	5140354c <__oldboot_ram_start+0x354c>
51403448:	e59d0000 	ldr	r0, [sp]
5140344c:	e59d1000 	ldr	r1, [sp]
51403450:	e5900000 	ldr	r0, [r0]
51403454:	e2811004 	add	r1, r1, #4	; 0x4
51403458:	e58d1000 	str	r1, [sp]
5140345c:	e3a01002 	mov	r1, #2	; 0x2
51403460:	ebffffad 	bl	5140331c <__oldboot_ram_start+0x331c>
51403464:	ea000038 	b	5140354c <__oldboot_ram_start+0x354c>
51403468:	e59d0000 	ldr	r0, [sp]
5140346c:	e59d1000 	ldr	r1, [sp]
51403470:	e5900000 	ldr	r0, [r0]
51403474:	e2811004 	add	r1, r1, #4	; 0x4
51403478:	e58d1000 	str	r1, [sp]
5140347c:	e3a01004 	mov	r1, #4	; 0x4
51403480:	ebffffa5 	bl	5140331c <__oldboot_ram_start+0x331c>
51403484:	ea000030 	b	5140354c <__oldboot_ram_start+0x354c>
51403488:	e59d0000 	ldr	r0, [sp]
5140348c:	e4904004 	ldr	r4, [r0], #4
51403490:	e58d0000 	str	r0, [sp]
51403494:	e3540000 	cmp	r4, #0	; 0x0
51403498:	aa000002 	bge	514034a8 <__oldboot_ram_start+0x34a8>
5140349c:	e3a0002d 	mov	r0, #45	; 0x2d
514034a0:	ebffff7b 	bl	51403294 <__oldboot_ram_start+0x3294>
514034a4:	e2644000 	rsb	r4, r4, #0	; 0x0
514034a8:	e1a00004 	mov	r0, r4
514034ac:	ebffff8e 	bl	514032ec <__oldboot_ram_start+0x32ec>
514034b0:	ea000025 	b	5140354c <__oldboot_ram_start+0x354c>
514034b4:	e59d0000 	ldr	r0, [sp]
514034b8:	e59d1000 	ldr	r1, [sp]
514034bc:	e5900000 	ldr	r0, [r0]
514034c0:	e2811004 	add	r1, r1, #4	; 0x4
514034c4:	e58d1000 	str	r1, [sp]
514034c8:	ebffff87 	bl	514032ec <__oldboot_ram_start+0x32ec>
514034cc:	ea00001e 	b	5140354c <__oldboot_ram_start+0x354c>
514034d0:	e59d0000 	ldr	r0, [sp]
514034d4:	e59d1000 	ldr	r1, [sp]
514034d8:	e5900000 	ldr	r0, [r0]
514034dc:	e2811004 	add	r1, r1, #4	; 0x4
514034e0:	e58d1000 	str	r1, [sp]
514034e4:	ebffff73 	bl	514032b8 <__oldboot_ram_start+0x32b8>
514034e8:	ea000017 	b	5140354c <__oldboot_ram_start+0x354c>
514034ec:	e3a00025 	mov	r0, #37	; 0x25
514034f0:	ebffff67 	bl	51403294 <__oldboot_ram_start+0x3294>
514034f4:	ea000014 	b	5140354c <__oldboot_ram_start+0x354c>
514034f8:	e59d0000 	ldr	r0, [sp]
514034fc:	e59d1000 	ldr	r1, [sp]
51403500:	e5900000 	ldr	r0, [r0]
51403504:	e2811004 	add	r1, r1, #4	; 0x4
51403508:	e58d1000 	str	r1, [sp]
5140350c:	e20000ff 	and	r0, r0, #255	; 0xff
51403510:	ebffff5f 	bl	51403294 <__oldboot_ram_start+0x3294>
51403514:	ea00000c 	b	5140354c <__oldboot_ram_start+0x354c>
51403518:	e3a00020 	mov	r0, #32	; 0x20
5140351c:	ebffff5c 	bl	51403294 <__oldboot_ram_start+0x3294>
51403520:	ea000009 	b	5140354c <__oldboot_ram_start+0x354c>
51403524:	e5d01000 	ldrb	r1, [r0]
51403528:	e351000a 	cmp	r1, #10	; 0xa
5140352c:	1a000001 	bne	51403538 <__oldboot_ram_start+0x3538>
51403530:	e2800001 	add	r0, r0, #1	; 0x1
51403534:	e58d0014 	str	r0, [sp, #20]
51403538:	e3a0400a 	mov	r4, #10	; 0xa
5140353c:	e3a0000d 	mov	r0, #13	; 0xd
51403540:	ebffff53 	bl	51403294 <__oldboot_ram_start+0x3294>
51403544:	e1a00004 	mov	r0, r4
51403548:	ebffff51 	bl	51403294 <__oldboot_ram_start+0x3294>
5140354c:	e59d0014 	ldr	r0, [sp, #20]
51403550:	e5d04000 	ldrb	r4, [r0]
51403554:	e3540000 	cmp	r4, #0	; 0x0
51403558:	1affff8d 	bne	51403394 <__oldboot_ram_start+0x3394>
5140355c:	e8bd0038 	ldmia	sp!, {r3, r4, r5}
51403560:	e49df014 	ldr	pc, [sp], #20
51403564:	e92d000f 	stmdb	sp!, {r0, r1, r2, r3}
51403568:	e92d4038 	stmdb	sp!, {r3, r4, r5, lr}
5140356c:	e28d0014 	add	r0, sp, #20	; 0x14
51403570:	e58d0000 	str	r0, [sp]
51403574:	ea00006d 	b	51403730 <__oldboot_ram_start+0x3730>
51403578:	e2800001 	add	r0, r0, #1	; 0x1
5140357c:	e58d0010 	str	r0, [sp, #16]
51403580:	e354000a 	cmp	r4, #10	; 0xa
51403584:	0a000065 	beq	51403720 <__oldboot_ram_start+0x3720>
51403588:	e354000d 	cmp	r4, #13	; 0xd
5140358c:	0a00005d 	beq	51403708 <__oldboot_ram_start+0x3708>
51403590:	e3540025 	cmp	r4, #37	; 0x25
51403594:	1a000063 	bne	51403728 <__oldboot_ram_start+0x3728>
51403598:	e4d01001 	ldrb	r1, [r0], #1
5140359c:	e58d0010 	str	r0, [sp, #16]
514035a0:	e3510063 	cmp	r1, #99	; 0x63
514035a4:	0a00004c 	beq	514036dc <__oldboot_ram_start+0x36dc>
514035a8:	ca00000f 	bgt	514035ec <__oldboot_ram_start+0x35ec>
514035ac:	e3510025 	cmp	r1, #37	; 0x25
514035b0:	0a000046 	beq	514036d0 <__oldboot_ram_start+0x36d0>
514035b4:	e3510042 	cmp	r1, #66	; 0x42
514035b8:	0a00001b 	beq	5140362c <__oldboot_ram_start+0x362c>
514035bc:	e3510048 	cmp	r1, #72	; 0x48
514035c0:	0a000021 	beq	5140364c <__oldboot_ram_start+0x364c>
514035c4:	e3510058 	cmp	r1, #88	; 0x58
514035c8:	1a00004b 	bne	514036fc <__oldboot_ram_start+0x36fc>
514035cc:	e59d0000 	ldr	r0, [sp]
514035d0:	e59d1000 	ldr	r1, [sp]
514035d4:	e5900000 	ldr	r0, [r0]
514035d8:	e2811004 	add	r1, r1, #4	; 0x4
514035dc:	e58d1000 	str	r1, [sp]
514035e0:	e3a01008 	mov	r1, #8	; 0x8
514035e4:	ebffff4c 	bl	5140331c <__oldboot_ram_start+0x331c>
514035e8:	ea000050 	b	51403730 <__oldboot_ram_start+0x3730>
514035ec:	e3510064 	cmp	r1, #100	; 0x64
514035f0:	0a00001d 	beq	5140366c <__oldboot_ram_start+0x366c>
514035f4:	e3510073 	cmp	r1, #115	; 0x73
514035f8:	0a00002d 	beq	514036b4 <__oldboot_ram_start+0x36b4>
514035fc:	e3510075 	cmp	r1, #117	; 0x75
51403600:	0a000024 	beq	51403698 <__oldboot_ram_start+0x3698>
51403604:	e3510078 	cmp	r1, #120	; 0x78
51403608:	1a00003b 	bne	514036fc <__oldboot_ram_start+0x36fc>
5140360c:	e59d0000 	ldr	r0, [sp]
51403610:	e59d1000 	ldr	r1, [sp]
51403614:	e5900000 	ldr	r0, [r0]
51403618:	e2811004 	add	r1, r1, #4	; 0x4
5140361c:	e58d1000 	str	r1, [sp]
51403620:	e3a01000 	mov	r1, #0	; 0x0
51403624:	ebffff3c 	bl	5140331c <__oldboot_ram_start+0x331c>
51403628:	ea000040 	b	51403730 <__oldboot_ram_start+0x3730>
5140362c:	e59d0000 	ldr	r0, [sp]
51403630:	e59d1000 	ldr	r1, [sp]
51403634:	e5900000 	ldr	r0, [r0]
51403638:	e2811004 	add	r1, r1, #4	; 0x4
5140363c:	e58d1000 	str	r1, [sp]
51403640:	e3a01002 	mov	r1, #2	; 0x2
51403644:	ebffff34 	bl	5140331c <__oldboot_ram_start+0x331c>
51403648:	ea000038 	b	51403730 <__oldboot_ram_start+0x3730>
5140364c:	e59d0000 	ldr	r0, [sp]
51403650:	e59d1000 	ldr	r1, [sp]
51403654:	e5900000 	ldr	r0, [r0]
51403658:	e2811004 	add	r1, r1, #4	; 0x4
5140365c:	e58d1000 	str	r1, [sp]
51403660:	e3a01004 	mov	r1, #4	; 0x4
51403664:	ebffff2c 	bl	5140331c <__oldboot_ram_start+0x331c>
51403668:	ea000030 	b	51403730 <__oldboot_ram_start+0x3730>
5140366c:	e59d0000 	ldr	r0, [sp]
51403670:	e4904004 	ldr	r4, [r0], #4
51403674:	e58d0000 	str	r0, [sp]
51403678:	e3540000 	cmp	r4, #0	; 0x0
5140367c:	aa000002 	bge	5140368c <__oldboot_ram_start+0x368c>
51403680:	e3a0002d 	mov	r0, #45	; 0x2d
51403684:	ebffff02 	bl	51403294 <__oldboot_ram_start+0x3294>
51403688:	e2644000 	rsb	r4, r4, #0	; 0x0
5140368c:	e1a00004 	mov	r0, r4
51403690:	ebffff15 	bl	514032ec <__oldboot_ram_start+0x32ec>
51403694:	ea000025 	b	51403730 <__oldboot_ram_start+0x3730>
51403698:	e59d0000 	ldr	r0, [sp]
5140369c:	e59d1000 	ldr	r1, [sp]
514036a0:	e5900000 	ldr	r0, [r0]
514036a4:	e2811004 	add	r1, r1, #4	; 0x4
514036a8:	e58d1000 	str	r1, [sp]
514036ac:	ebffff0e 	bl	514032ec <__oldboot_ram_start+0x32ec>
514036b0:	ea00001e 	b	51403730 <__oldboot_ram_start+0x3730>
514036b4:	e59d0000 	ldr	r0, [sp]
514036b8:	e59d1000 	ldr	r1, [sp]
514036bc:	e5900000 	ldr	r0, [r0]
514036c0:	e2811004 	add	r1, r1, #4	; 0x4
514036c4:	e58d1000 	str	r1, [sp]
514036c8:	ebfffefa 	bl	514032b8 <__oldboot_ram_start+0x32b8>
514036cc:	ea000017 	b	51403730 <__oldboot_ram_start+0x3730>
514036d0:	e3a00025 	mov	r0, #37	; 0x25
514036d4:	ebfffeee 	bl	51403294 <__oldboot_ram_start+0x3294>
514036d8:	ea000014 	b	51403730 <__oldboot_ram_start+0x3730>
514036dc:	e59d0000 	ldr	r0, [sp]
514036e0:	e59d1000 	ldr	r1, [sp]
514036e4:	e5900000 	ldr	r0, [r0]
514036e8:	e2811004 	add	r1, r1, #4	; 0x4
514036ec:	e58d1000 	str	r1, [sp]
514036f0:	e20000ff 	and	r0, r0, #255	; 0xff
514036f4:	ebfffee6 	bl	51403294 <__oldboot_ram_start+0x3294>
514036f8:	ea00000c 	b	51403730 <__oldboot_ram_start+0x3730>
514036fc:	e3a00020 	mov	r0, #32	; 0x20
51403700:	ebfffee3 	bl	51403294 <__oldboot_ram_start+0x3294>
51403704:	ea000009 	b	51403730 <__oldboot_ram_start+0x3730>
51403708:	e5d01000 	ldrb	r1, [r0]
5140370c:	e351000a 	cmp	r1, #10	; 0xa
51403710:	1a000001 	bne	5140371c <__oldboot_ram_start+0x371c>
51403714:	e2800001 	add	r0, r0, #1	; 0x1
51403718:	e58d0010 	str	r0, [sp, #16]
5140371c:	e3a0400a 	mov	r4, #10	; 0xa
51403720:	e3a0000d 	mov	r0, #13	; 0xd
51403724:	ebfffeda 	bl	51403294 <__oldboot_ram_start+0x3294>
51403728:	e1a00004 	mov	r0, r4
5140372c:	ebfffed8 	bl	51403294 <__oldboot_ram_start+0x3294>
51403730:	e59d0010 	ldr	r0, [sp, #16]
51403734:	e5d04000 	ldrb	r4, [r0]
51403738:	e3540000 	cmp	r4, #0	; 0x0
5140373c:	1affff8d 	bne	51403578 <__oldboot_ram_start+0x3578>
51403740:	e8bd0038 	ldmia	sp!, {r3, r4, r5}
51403744:	e49df014 	ldr	pc, [sp], #20
51403748:	e92d000f 	stmdb	sp!, {r0, r1, r2, r3}
5140374c:	e92d40f8 	stmdb	sp!, {r3, r4, r5, r6, r7, lr}
51403750:	e1a05000 	mov	r5, r0
51403754:	e28d0020 	add	r0, sp, #32	; 0x20
51403758:	e58d0000 	str	r0, [sp]
5140375c:	e59f62dc 	ldr	r6, [pc, #732]	; 51403a40 <__oldboot_ram_start+0x3a40>
51403760:	e5865000 	str	r5, [r6]
51403764:	ea00006d 	b	51403920 <__oldboot_ram_start+0x3920>
51403768:	e2800001 	add	r0, r0, #1	; 0x1
5140376c:	e58d001c 	str	r0, [sp, #28]
51403770:	e354000a 	cmp	r4, #10	; 0xa
51403774:	0a000065 	beq	51403910 <__oldboot_ram_start+0x3910>
51403778:	e354000d 	cmp	r4, #13	; 0xd
5140377c:	0a00005d 	beq	514038f8 <__oldboot_ram_start+0x38f8>
51403780:	e3540025 	cmp	r4, #37	; 0x25
51403784:	1a000063 	bne	51403918 <__oldboot_ram_start+0x3918>
51403788:	e4d01001 	ldrb	r1, [r0], #1
5140378c:	e58d001c 	str	r0, [sp, #28]
51403790:	e3510063 	cmp	r1, #99	; 0x63
51403794:	0a00004c 	beq	514038cc <__oldboot_ram_start+0x38cc>
51403798:	ca00000f 	bgt	514037dc <__oldboot_ram_start+0x37dc>
5140379c:	e3510025 	cmp	r1, #37	; 0x25
514037a0:	0a000046 	beq	514038c0 <__oldboot_ram_start+0x38c0>
514037a4:	e3510042 	cmp	r1, #66	; 0x42
514037a8:	0a00001b 	beq	5140381c <__oldboot_ram_start+0x381c>
514037ac:	e3510048 	cmp	r1, #72	; 0x48
514037b0:	0a000021 	beq	5140383c <__oldboot_ram_start+0x383c>
514037b4:	e3510058 	cmp	r1, #88	; 0x58
514037b8:	1a00004b 	bne	514038ec <__oldboot_ram_start+0x38ec>
514037bc:	e59d0000 	ldr	r0, [sp]
514037c0:	e59d1000 	ldr	r1, [sp]
514037c4:	e5900000 	ldr	r0, [r0]
514037c8:	e2811004 	add	r1, r1, #4	; 0x4
514037cc:	e58d1000 	str	r1, [sp]
514037d0:	e3a01008 	mov	r1, #8	; 0x8
514037d4:	ebfffed0 	bl	5140331c <__oldboot_ram_start+0x331c>
514037d8:	ea000050 	b	51403920 <__oldboot_ram_start+0x3920>
514037dc:	e3510064 	cmp	r1, #100	; 0x64
514037e0:	0a00001d 	beq	5140385c <__oldboot_ram_start+0x385c>
514037e4:	e3510073 	cmp	r1, #115	; 0x73
514037e8:	0a00002d 	beq	514038a4 <__oldboot_ram_start+0x38a4>
514037ec:	e3510075 	cmp	r1, #117	; 0x75
514037f0:	0a000024 	beq	51403888 <__oldboot_ram_start+0x3888>
514037f4:	e3510078 	cmp	r1, #120	; 0x78
514037f8:	1a00003b 	bne	514038ec <__oldboot_ram_start+0x38ec>
514037fc:	e59d0000 	ldr	r0, [sp]
51403800:	e59d1000 	ldr	r1, [sp]
51403804:	e5900000 	ldr	r0, [r0]
51403808:	e2811004 	add	r1, r1, #4	; 0x4
5140380c:	e58d1000 	str	r1, [sp]
51403810:	e3a01000 	mov	r1, #0	; 0x0
51403814:	ebfffec0 	bl	5140331c <__oldboot_ram_start+0x331c>
51403818:	ea000040 	b	51403920 <__oldboot_ram_start+0x3920>
5140381c:	e59d0000 	ldr	r0, [sp]
51403820:	e59d1000 	ldr	r1, [sp]
51403824:	e5900000 	ldr	r0, [r0]
51403828:	e2811004 	add	r1, r1, #4	; 0x4
5140382c:	e58d1000 	str	r1, [sp]
51403830:	e3a01002 	mov	r1, #2	; 0x2
51403834:	ebfffeb8 	bl	5140331c <__oldboot_ram_start+0x331c>
51403838:	ea000038 	b	51403920 <__oldboot_ram_start+0x3920>
5140383c:	e59d0000 	ldr	r0, [sp]
51403840:	e59d1000 	ldr	r1, [sp]
51403844:	e5900000 	ldr	r0, [r0]
51403848:	e2811004 	add	r1, r1, #4	; 0x4
5140384c:	e58d1000 	str	r1, [sp]
51403850:	e3a01004 	mov	r1, #4	; 0x4
51403854:	ebfffeb0 	bl	5140331c <__oldboot_ram_start+0x331c>
51403858:	ea000030 	b	51403920 <__oldboot_ram_start+0x3920>
5140385c:	e59d0000 	ldr	r0, [sp]
51403860:	e4904004 	ldr	r4, [r0], #4
51403864:	e58d0000 	str	r0, [sp]
51403868:	e3540000 	cmp	r4, #0	; 0x0
5140386c:	aa000002 	bge	5140387c <__oldboot_ram_start+0x387c>
51403870:	e3a0002d 	mov	r0, #45	; 0x2d
51403874:	ebfffe86 	bl	51403294 <__oldboot_ram_start+0x3294>
51403878:	e2644000 	rsb	r4, r4, #0	; 0x0
5140387c:	e1a00004 	mov	r0, r4
51403880:	ebfffe99 	bl	514032ec <__oldboot_ram_start+0x32ec>
51403884:	ea000025 	b	51403920 <__oldboot_ram_start+0x3920>
51403888:	e59d0000 	ldr	r0, [sp]
5140388c:	e59d1000 	ldr	r1, [sp]
51403890:	e5900000 	ldr	r0, [r0]
51403894:	e2811004 	add	r1, r1, #4	; 0x4
51403898:	e58d1000 	str	r1, [sp]
5140389c:	ebfffe92 	bl	514032ec <__oldboot_ram_start+0x32ec>
514038a0:	ea00001e 	b	51403920 <__oldboot_ram_start+0x3920>
514038a4:	e59d0000 	ldr	r0, [sp]
514038a8:	e59d1000 	ldr	r1, [sp]
514038ac:	e5900000 	ldr	r0, [r0]
514038b0:	e2811004 	add	r1, r1, #4	; 0x4
514038b4:	e58d1000 	str	r1, [sp]
514038b8:	ebfffe7e 	bl	514032b8 <__oldboot_ram_start+0x32b8>
514038bc:	ea000017 	b	51403920 <__oldboot_ram_start+0x3920>
514038c0:	e3a00025 	mov	r0, #37	; 0x25
514038c4:	ebfffe72 	bl	51403294 <__oldboot_ram_start+0x3294>
514038c8:	ea000014 	b	51403920 <__oldboot_ram_start+0x3920>
514038cc:	e59d0000 	ldr	r0, [sp]
514038d0:	e59d1000 	ldr	r1, [sp]
514038d4:	e5900000 	ldr	r0, [r0]
514038d8:	e2811004 	add	r1, r1, #4	; 0x4
514038dc:	e58d1000 	str	r1, [sp]
514038e0:	e20000ff 	and	r0, r0, #255	; 0xff
514038e4:	ebfffe6a 	bl	51403294 <__oldboot_ram_start+0x3294>
514038e8:	ea00000c 	b	51403920 <__oldboot_ram_start+0x3920>
514038ec:	e3a00020 	mov	r0, #32	; 0x20
514038f0:	ebfffe67 	bl	51403294 <__oldboot_ram_start+0x3294>
514038f4:	ea000009 	b	51403920 <__oldboot_ram_start+0x3920>
514038f8:	e5d01000 	ldrb	r1, [r0]
514038fc:	e351000a 	cmp	r1, #10	; 0xa
51403900:	1a000001 	bne	5140390c <__oldboot_ram_start+0x390c>
51403904:	e2800001 	add	r0, r0, #1	; 0x1
51403908:	e58d001c 	str	r0, [sp, #28]
5140390c:	e3a0400a 	mov	r4, #10	; 0xa
51403910:	e3a0000d 	mov	r0, #13	; 0xd
51403914:	ebfffe5e 	bl	51403294 <__oldboot_ram_start+0x3294>
51403918:	e1a00004 	mov	r0, r4
5140391c:	ebfffe5c 	bl	51403294 <__oldboot_ram_start+0x3294>
51403920:	e59d001c 	ldr	r0, [sp, #28]
51403924:	e5d04000 	ldrb	r4, [r0]
51403928:	e3540000 	cmp	r4, #0	; 0x0
5140392c:	1affff8d 	bne	51403768 <__oldboot_ram_start+0x3768>
51403930:	e3a00000 	mov	r0, #0	; 0x0
51403934:	ebfffe56 	bl	51403294 <__oldboot_ram_start+0x3294>
51403938:	e5960000 	ldr	r0, [r6]
5140393c:	e0400005 	sub	r0, r0, r5
51403940:	e20000ff 	and	r0, r0, #255	; 0xff
51403944:	e3a01000 	mov	r1, #0	; 0x0
51403948:	e5861000 	str	r1, [r6]
5140394c:	e8bd00f8 	ldmia	sp!, {r3, r4, r5, r6, r7}
51403950:	e49df014 	ldr	pc, [sp], #20
51403954:	e92d401c 	stmdb	sp!, {r2, r3, r4, lr}
51403958:	e1a01400 	mov	r1, r0, lsl #8
5140395c:	e1a03c20 	mov	r3, r0, lsr #24
51403960:	e1a02c21 	mov	r2, r1, lsr #24
51403964:	e1cd20f0 	strd	r2, [sp]
51403968:	e1a01800 	mov	r1, r0, lsl #16
5140396c:	e20020ff 	and	r2, r0, #255	; 0xff
51403970:	e1a03c21 	mov	r3, r1, lsr #24
51403974:	e59f00d8 	ldr	r0, [pc, #216]	; 51403a54 <__oldboot_ram_start+0x3a54>
51403978:	e28f10c8 	add	r1, pc, #200	; 0xc8
5140397c:	ebffff71 	bl	51403748 <__oldboot_ram_start+0x3748>
51403980:	e59f00cc 	ldr	r0, [pc, #204]	; 51403a54 <__oldboot_ram_start+0x3a54>
51403984:	e8bd801c 	ldmia	sp!, {r2, r3, r4, pc}
51403988:	e3a02000 	mov	r2, #0	; 0x0
5140398c:	ea000003 	b	514039a0 <__oldboot_ram_start+0x39a0>
51403990:	e0822102 	add	r2, r2, r2, lsl #2
51403994:	e2800001 	add	r0, r0, #1	; 0x1
51403998:	e0811082 	add	r1, r1, r2, lsl #1
5140399c:	e2412030 	sub	r2, r1, #48	; 0x30
514039a0:	e5d01000 	ldrb	r1, [r0]
514039a4:	e3510000 	cmp	r1, #0	; 0x0
514039a8:	0a000003 	beq	514039bc <__oldboot_ram_start+0x39bc>
514039ac:	e3510030 	cmp	r1, #48	; 0x30
514039b0:	3a000001 	bcc	514039bc <__oldboot_ram_start+0x39bc>
514039b4:	e3510039 	cmp	r1, #57	; 0x39
514039b8:	9afffff4 	bls	51403990 <__oldboot_ram_start+0x3990>
514039bc:	e1a00002 	mov	r0, r2
514039c0:	e12fff1e 	bx	lr
514039c4:	e92d4070 	stmdb	sp!, {r4, r5, r6, lr}
514039c8:	e1a03000 	mov	r3, r0
514039cc:	e3a05000 	mov	r5, #0	; 0x0
514039d0:	e1a00003 	mov	r0, r3
514039d4:	e3a04000 	mov	r4, #0	; 0x0
514039d8:	e3a06000 	mov	r6, #0	; 0x0
514039dc:	ea000000 	b	514039e4 <__oldboot_ram_start+0x39e4>
514039e0:	e2833001 	add	r3, r3, #1	; 0x1
514039e4:	e5d31000 	ldrb	r1, [r3]
514039e8:	e351002e 	cmp	r1, #46	; 0x2e
514039ec:	0a000001 	beq	514039f8 <__oldboot_ram_start+0x39f8>
514039f0:	e3510000 	cmp	r1, #0	; 0x0
514039f4:	1afffff9 	bne	514039e0 <__oldboot_ram_start+0x39e0>
514039f8:	e3530000 	cmp	r3, #0	; 0x0
514039fc:	1a000003 	bne	51403a10 <__oldboot_ram_start+0x3a10>
51403a00:	e3540003 	cmp	r4, #3	; 0x3
51403a04:	0a000001 	beq	51403a10 <__oldboot_ram_start+0x3a10>
51403a08:	e3a00000 	mov	r0, #0	; 0x0
51403a0c:	e8bd8070 	ldmia	sp!, {r4, r5, r6, pc}
51403a10:	e5c36000 	strb	r6, [r3]
51403a14:	ebffffdb 	bl	51403988 <__oldboot_ram_start+0x3988>
51403a18:	e1a01184 	mov	r1, r4, lsl #3
51403a1c:	e20000ff 	and	r0, r0, #255	; 0xff
51403a20:	e1855110 	orr	r5, r5, r0, lsl r1
51403a24:	e2830001 	add	r0, r3, #1	; 0x1
51403a28:	e1a03000 	mov	r3, r0
51403a2c:	e2844001 	add	r4, r4, #1	; 0x1
51403a30:	e3540004 	cmp	r4, #4	; 0x4
51403a34:	3affffea 	bcc	514039e4 <__oldboot_ram_start+0x39e4>
51403a38:	e1a00005 	mov	r0, r5
51403a3c:	eafffff2 	b	51403a0c <__oldboot_ram_start+0x3a0c>
51403a40:	514449b8 	strplh	r4, [r4, #-152]
51403a44:	51444c08 	cmppl	r4, r8, lsl #24
51403a48:	252e7525 	strcs	r7, [lr, #-1317]!
51403a4c:	75252e75 	strvc	r2, [r5, #-3701]!
51403a50:	0075252e 	rsbeqs	r2, r5, lr, lsr #10
51403a54:	51454800 	cmppl	r5, r0, lsl #16
51403a58:	e12fff1e 	bx	lr
51403a5c:	e92d407c 	stmdb	sp!, {r2, r3, r4, r5, r6, lr}
51403a60:	e3a04002 	mov	r4, #2	; 0x2
51403a64:	e59f6204 	ldr	r6, [pc, #516]	; 51403c70 <__oldboot_ram_start+0x3c70>
51403a68:	e5960014 	ldr	r0, [r6, #20]
51403a6c:	e1a058a0 	mov	r5, r0, lsr #17
51403a70:	e3550000 	cmp	r5, #0	; 0x0
51403a74:	0a000011 	beq	51403ac0 <__oldboot_ram_start+0x3ac0>
51403a78:	e1a01005 	mov	r1, r5
51403a7c:	e3a00000 	mov	r0, #0	; 0x0
51403a80:	eb00bebc 	bl	51433578 <__oldboot_ram_start+0x33578>
51403a84:	e3500801 	cmp	r0, #65536	; 0x10000
51403a88:	0a00000c 	beq	51403ac0 <__oldboot_ram_start+0x3ac0>
51403a8c:	e5961014 	ldr	r1, [r6, #20]
51403a90:	e28f0f77 	add	r0, pc, #476	; 0x1dc
51403a94:	ebfffeb2 	bl	51403564 <__oldboot_ram_start+0x3564>
51403a98:	e5960014 	ldr	r0, [r6, #20]
51403a9c:	e2800802 	add	r0, r0, #131072	; 0x20000
51403aa0:	e5860014 	str	r0, [r6, #20]
51403aa4:	e2444001 	sub	r4, r4, #1	; 0x1
51403aa8:	e3540000 	cmp	r4, #0	; 0x0
51403aac:	1affffed 	bne	51403a68 <__oldboot_ram_start+0x3a68>
51403ab0:	e3540000 	cmp	r4, #0	; 0x0
51403ab4:	0a000014 	beq	51403b0c <__oldboot_ram_start+0x3b0c>
51403ab8:	e3a00001 	mov	r0, #1	; 0x1
51403abc:	e8bd807c 	ldmia	sp!, {r2, r3, r4, r5, r6, pc}
51403ac0:	e3a00000 	mov	r0, #0	; 0x0
51403ac4:	eb00c007 	bl	51433ae8 <__oldboot_ram_start+0x33ae8>
51403ac8:	e1a06000 	mov	r6, r0
51403acc:	e3a00000 	mov	r0, #0	; 0x0
51403ad0:	eb00c004 	bl	51433ae8 <__oldboot_ram_start+0x33ae8>
51403ad4:	e3a03000 	mov	r3, #0	; 0x0
51403ad8:	e58d3000 	str	r3, [sp]
51403adc:	e58d3004 	str	r3, [sp, #4]
51403ae0:	e0010095 	mul	r1, r5, r0
51403ae4:	e59f31b0 	ldr	r3, [pc, #432]	; 51403c9c <__oldboot_ram_start+0x3c9c>
51403ae8:	e3a00000 	mov	r0, #0	; 0x0
51403aec:	e1a02006 	mov	r2, r6
51403af0:	eb00bae8 	bl	51432698 <__oldboot_ram_start+0x32698>
51403af4:	e3500000 	cmp	r0, #0	; 0x0
51403af8:	0affffec 	beq	51403ab0 <__oldboot_ram_start+0x3ab0>
51403afc:	e28f0f67 	add	r0, pc, #412	; 0x19c
51403b00:	ebfffe97 	bl	51403564 <__oldboot_ram_start+0x3564>
51403b04:	e3a00000 	mov	r0, #0	; 0x0
51403b08:	eaffffeb 	b	51403abc <__oldboot_ram_start+0x3abc>
51403b0c:	e3a00000 	mov	r0, #0	; 0x0
51403b10:	eaffffe9 	b	51403abc <__oldboot_ram_start+0x3abc>
51403b14:	e92d41fc 	stmdb	sp!, {r2, r3, r4, r5, r6, r7, r8, lr}
51403b18:	e28f0f65 	add	r0, pc, #404	; 0x194
51403b1c:	ebfffe90 	bl	51403564 <__oldboot_ram_start+0x3564>
51403b20:	e28f0e1b 	add	r0, pc, #432	; 0x1b0
51403b24:	ebfffe8e 	bl	51403564 <__oldboot_ram_start+0x3564>
51403b28:	e28f0f61 	add	r0, pc, #388	; 0x184
51403b2c:	ebfffe8c 	bl	51403564 <__oldboot_ram_start+0x3564>
51403b30:	e59f5138 	ldr	r5, [pc, #312]	; 51403c70 <__oldboot_ram_start+0x3c70>
51403b34:	e3a04703 	mov	r4, #786432	; 0xc0000
51403b38:	e5854014 	str	r4, [r5, #20]
51403b3c:	ebffffc6 	bl	51403a5c <__oldboot_ram_start+0x3a5c>
51403b40:	e3500000 	cmp	r0, #0	; 0x0
51403b44:	0a000035 	beq	51403c20 <__oldboot_ram_start+0x3c20>
51403b48:	e59fe14c 	ldr	lr, [pc, #332]	; 51403c9c <__oldboot_ram_start+0x3c9c>
51403b4c:	e1a03005 	mov	r3, r5
51403b50:	e1a0000e 	mov	r0, lr
51403b54:	e585e010 	str	lr, [r5, #16]
51403b58:	e5902000 	ldr	r2, [r0]
51403b5c:	e59f1190 	ldr	r1, [pc, #400]	; 51403cf4 <__oldboot_ram_start+0x3cf4>
51403b60:	e1520001 	cmp	r2, r1
51403b64:	1a000003 	bne	51403b78 <__oldboot_ram_start+0x3b78>
51403b68:	e5901004 	ldr	r1, [r0, #4]
51403b6c:	e2811001 	add	r1, r1, #1	; 0x1
51403b70:	e5801004 	str	r1, [r0, #4]
51403b74:	ea000008 	b	51403b9c <__oldboot_ram_start+0x3b9c>
51403b78:	e5801000 	str	r1, [r0]
51403b7c:	e3a02000 	mov	r2, #0	; 0x0
51403b80:	e5802004 	str	r2, [r0, #4]
51403b84:	e5804008 	str	r4, [r0, #8]
51403b88:	e3a01c01 	mov	r1, #256	; 0x100
51403b8c:	e7ce2001 	strb	r2, [lr, r1]
51403b90:	e2811001 	add	r1, r1, #1	; 0x1
51403b94:	e3510802 	cmp	r1, #131072	; 0x20000
51403b98:	3afffffb 	bcc	51403b8c <__oldboot_ram_start+0x3b8c>
51403b9c:	e3a01000 	mov	r1, #0	; 0x0
51403ba0:	e59f6150 	ldr	r6, [pc, #336]	; 51403cf8 <__oldboot_ram_start+0x3cf8>
51403ba4:	e59f4150 	ldr	r4, [pc, #336]	; 51403cfc <__oldboot_ram_start+0x3cfc>
51403ba8:	e593200c 	ldr	r2, [r3, #12]
51403bac:	e3a05c01 	mov	r5, #256	; 0x100
51403bb0:	ea00000a 	b	51403be0 <__oldboot_ram_start+0x3be0>
51403bb4:	e590c008 	ldr	ip, [r0, #8]
51403bb8:	e7d47001 	ldrb	r7, [r4, r1]
51403bbc:	e28c8001 	add	r8, ip, #1	; 0x1
51403bc0:	e5808008 	str	r8, [r0, #8]
51403bc4:	e7ce700c 	strb	r7, [lr, ip]
51403bc8:	e590c008 	ldr	ip, [r0, #8]
51403bcc:	e24c7c01 	sub	r7, ip, #256	; 0x100
51403bd0:	e1570006 	cmp	r7, r6
51403bd4:	3a000000 	bcc	51403bdc <__oldboot_ram_start+0x3bdc>
51403bd8:	e5805008 	str	r5, [r0, #8]
51403bdc:	e2811001 	add	r1, r1, #1	; 0x1
51403be0:	e1510002 	cmp	r1, r2
51403be4:	3afffff2 	bcc	51403bb4 <__oldboot_ram_start+0x3bb4>
51403be8:	e5930014 	ldr	r0, [r3, #20]
51403bec:	e2401703 	sub	r1, r0, #786432	; 0xc0000
51403bf0:	e3510701 	cmp	r1, #262144	; 0x40000
51403bf4:	2a000009 	bcs	51403c20 <__oldboot_ram_start+0x3c20>
51403bf8:	e1a048a0 	mov	r4, r0, lsr #17
51403bfc:	e3a02000 	mov	r2, #0	; 0x0
51403c00:	e1a01004 	mov	r1, r4
51403c04:	e3a00000 	mov	r0, #0	; 0x0
51403c08:	eb00bc65 	bl	51432da4 <__oldboot_ram_start+0x32da4>
51403c0c:	e3500000 	cmp	r0, #0	; 0x0
51403c10:	0a000003 	beq	51403c24 <__oldboot_ram_start+0x3c24>
51403c14:	e1a01004 	mov	r1, r4
51403c18:	e28f00e0 	add	r0, pc, #224	; 0xe0
51403c1c:	ebfffe50 	bl	51403564 <__oldboot_ram_start+0x3564>
51403c20:	e8bd81fc 	ldmia	sp!, {r2, r3, r4, r5, r6, r7, r8, pc}
51403c24:	e3a00000 	mov	r0, #0	; 0x0
51403c28:	eb00bfae 	bl	51433ae8 <__oldboot_ram_start+0x33ae8>
51403c2c:	e1a05000 	mov	r5, r0
51403c30:	e3a00000 	mov	r0, #0	; 0x0
51403c34:	eb00bfab 	bl	51433ae8 <__oldboot_ram_start+0x33ae8>
51403c38:	e3a03002 	mov	r3, #2	; 0x2
51403c3c:	e3a02000 	mov	r2, #0	; 0x0
51403c40:	e1cd20f0 	strd	r2, [sp]
51403c44:	e0010094 	mul	r1, r4, r0
51403c48:	e59f304c 	ldr	r3, [pc, #76]	; 51403c9c <__oldboot_ram_start+0x3c9c>
51403c4c:	e3a00000 	mov	r0, #0	; 0x0
51403c50:	e1a02005 	mov	r2, r5
51403c54:	eb00bc3e 	bl	51432d54 <__oldboot_ram_start+0x32d54>
51403c58:	e3500000 	cmp	r0, #0	; 0x0
51403c5c:	0affffef 	beq	51403c20 <__oldboot_ram_start+0x3c20>
51403c60:	e1a01004 	mov	r1, r4
51403c64:	e28f00c0 	add	r0, pc, #192	; 0xc0
51403c68:	ebfffe3d 	bl	51403564 <__oldboot_ram_start+0x3564>
51403c6c:	eaffffeb 	b	51403c20 <__oldboot_ram_start+0x3c20>
51403c70:	514449bc 	strplh	r4, [r4, #-156]
51403c74:	444c4e4f 	strmib	r4, [ip], #-3663
51403c78:	6b68435f 	blvs	52e149fc <__oldboot_ram_start+0x1a149fc>
51403c7c:	74696e49 	strvcbt	r6, [r9], #-3657
51403c80:	42646142 	rsbmi	r6, r4, #-2147483632	; 0x80000010
51403c84:	203a6b6c 	eorcss	r6, sl, ip, ror #22
51403c88:	20646162 	rsbcs	r6, r4, r2, ror #2
51403c8c:	636f6c62 	cmnvs	pc, #25088	; 0x6200
51403c90:	3028206b 	eorcc	r2, r8, fp, rrx
51403c94:	29782578 	ldmcsdb	r8!, {r3, r4, r5, r6, r8, sl, sp}^
51403c98:	000a0d2e 	andeq	r0, sl, lr, lsr #26
51403c9c:	51454810 	cmppl	r5, r0, lsl r8
51403ca0:	65520a0d 	ldrvsb	r0, [r2, #-2573]
51403ca4:	6e696461 	cdpvs	4, 6, cr6, cr9, cr1, {3}
51403ca8:	61662067 	cmnvs	r6, r7, rrx
51403cac:	64656c69 	strvsbt	r6, [r5], #-3177
51403cb0:	00000a0d 	andeq	r0, r0, sp, lsl #20
51403cb4:	3d3d3d0a 	ldccc	13, cr3, [sp, #-40]!
51403cb8:	3d3d3d3d 	ldccc	13, cr3, [sp, #-244]!
51403cbc:	3d3d3d3d 	ldccc	13, cr3, [sp, #-244]!
51403cc0:	3d3d3d3d 	ldccc	13, cr3, [sp, #-244]!
51403cc4:	3d3d3d3d 	ldccc	13, cr3, [sp, #-244]!
51403cc8:	3d3d3d3d 	ldccc	13, cr3, [sp, #-244]!
51403ccc:	3d3d3d3d 	ldccc	13, cr3, [sp, #-244]!
51403cd0:	3d3d3d3d 	ldccc	13, cr3, [sp, #-244]!
51403cd4:	000a3d3d 	andeq	r3, sl, sp, lsr sp
51403cd8:	6f42200a 	svcvs	0x0042200a
51403cdc:	6544746f 	strvsb	r7, [r4, #-1135]
51403ce0:	42677562 	rsbmi	r7, r7, #411041792	; 0x18800000
51403ce4:	4e666675 	mcrmi	6, 3, r6, cr6, cr5, {3}
51403ce8:	57646e61 	strplb	r6, [r4, -r1, ror #28]!
51403cec:	65746972 	ldrvsb	r6, [r4, #-2418]!
51403cf0:	00000a20 	andeq	r0, r0, r0, lsr #20
51403cf4:	b007a61c 	andlt	sl, r7, ip, lsl r6
51403cf8:	0001ff00 	andeq	pc, r1, r0, lsl #30
51403cfc:	51474810 	cmppl	r7, r0, lsl r8
51403d00:	444c4e4f 	strmib	r4, [ip], #-3663
51403d04:	6172455f 	cmnvs	r2, pc, asr r5
51403d08:	203a6573 	eorcss	r6, sl, r3, ror r5
51403d0c:	6c696166 	stfvse	f6, [r9], #-408
51403d10:	74206465 	strvct	r6, [r0], #-1125
51403d14:	7265206f 	rsbvc	r2, r5, #111	; 0x6f
51403d18:	20657361 	rsbcs	r7, r5, r1, ror #6
51403d1c:	636f6c62 	cmnvs	pc, #25088	; 0x6200
51403d20:	3028206b 	eorcc	r2, r8, fp, rrx
51403d24:	29782578 	ldmcsdb	r8!, {r3, r4, r5, r6, r8, sl, sp}^
51403d28:	000a0d2e 	andeq	r0, sl, lr, lsr #26
51403d2c:	444c4e4f 	strmib	r4, [ip], #-3663
51403d30:	6972575f 	ldmvsdb	r2!, {r0, r1, r2, r3, r4, r6, r8, r9, sl, ip, lr}^
51403d34:	203a6574 	eorcss	r6, sl, r4, ror r5
51403d38:	6c696166 	stfvse	f6, [r9], #-408
51403d3c:	74206465 	strvct	r6, [r0], #-1125
51403d40:	7277206f 	rsbvcs	r2, r7, #111	; 0x6f
51403d44:	20657469 	rsbcs	r7, r5, r9, ror #8
51403d48:	636f6c62 	cmnvs	pc, #25088	; 0x6200
51403d4c:	3028206b 	eorcc	r2, r8, fp, rrx
51403d50:	29782578 	ldmcsdb	r8!, {r3, r4, r5, r6, r8, sl, sp}^
51403d54:	000a0d2e 	andeq	r0, sl, lr, lsr #26
51403d58:	e1a01000 	mov	r1, r0
51403d5c:	e51f20f4 	ldr	r2, [pc, #-244]	; 51403c70 <__oldboot_ram_start+0x3c70>
51403d60:	e592000c 	ldr	r0, [r2, #12]
51403d64:	e2803001 	add	r3, r0, #1	; 0x1
51403d68:	e582300c 	str	r3, [r2, #12]
51403d6c:	e51f2078 	ldr	r2, [pc, #-120]	; 51403cfc <__oldboot_ram_start+0x3cfc>
51403d70:	e7c21000 	strb	r1, [r2, r0]
51403d74:	e12fff1e 	bx	lr
51403d78:	e92d4010 	stmdb	sp!, {r4, lr}
51403d7c:	ebfffa7b 	bl	51402770 <__oldboot_ram_start+0x2770>
51403d80:	ebfffae4 	bl	51402918 <__oldboot_ram_start+0x2918>
51403d84:	e3500000 	cmp	r0, #0	; 0x0
51403d88:	0afffffb 	beq	51403d7c <__oldboot_ram_start+0x3d7c>
51403d8c:	e3a00000 	mov	r0, #0	; 0x0
51403d90:	e51f2128 	ldr	r2, [pc, #-296]	; 51403c70 <__oldboot_ram_start+0x3c70>
51403d94:	e51fc0a0 	ldr	ip, [pc, #-160]	; 51403cfc <__oldboot_ram_start+0x3cfc>
51403d98:	e5921000 	ldr	r1, [r2]
51403d9c:	e592300c 	ldr	r3, [r2, #12]
51403da0:	ea000005 	b	51403dbc <__oldboot_ram_start+0x3dbc>
51403da4:	e5912010 	ldr	r2, [r1, #16]
51403da8:	e3120002 	tst	r2, #2	; 0x2
51403dac:	0afffffc 	beq	51403da4 <__oldboot_ram_start+0x3da4>
51403db0:	e7dc2000 	ldrb	r2, [ip, r0]
51403db4:	e5812020 	str	r2, [r1, #32]
51403db8:	e2800001 	add	r0, r0, #1	; 0x1
51403dbc:	e1500003 	cmp	r0, r3
51403dc0:	3afffff7 	bcc	51403da4 <__oldboot_ram_start+0x3da4>
51403dc4:	eafffffe 	b	51403dc4 <__oldboot_ram_start+0x3dc4>
51403dc8:	ed2d8b02 	fstmdbd	sp!, {d8}
51403dcc:	e51f0164 	ldr	r0, [pc, #-356]	; 51403c70 <__oldboot_ram_start+0x3c70>
51403dd0:	e5901000 	ldr	r1, [r0]
51403dd4:	e3510000 	cmp	r1, #0	; 0x0
51403dd8:	1a000001 	bne	51403de4 <__oldboot_ram_start+0x3de4>
51403ddc:	e59f1124 	ldr	r1, [pc, #292]	; 51403f08 <__oldboot_ram_start+0x3f08>
51403de0:	e5801000 	str	r1, [r0]
51403de4:	e5901004 	ldr	r1, [r0, #4]
51403de8:	e3510000 	cmp	r1, #0	; 0x0
51403dec:	1a000001 	bne	51403df8 <__oldboot_ram_start+0x3df8>
51403df0:	e59f1114 	ldr	r1, [pc, #276]	; 51403f0c <__oldboot_ram_start+0x3f0c>
51403df4:	e5801004 	str	r1, [r0, #4]
51403df8:	e5901008 	ldr	r1, [r0, #8]
51403dfc:	e3510000 	cmp	r1, #0	; 0x0
51403e00:	1a000001 	bne	51403e0c <__oldboot_ram_start+0x3e0c>
51403e04:	e59f1104 	ldr	r1, [pc, #260]	; 51403f10 <__oldboot_ram_start+0x3f10>
51403e08:	e5801008 	str	r1, [r0, #8]
51403e0c:	e1a01000 	mov	r1, r0
51403e10:	e5900008 	ldr	r0, [r0, #8]
51403e14:	e5902034 	ldr	r2, [r0, #52]
51403e18:	e3822008 	orr	r2, r2, #8	; 0x8
51403e1c:	e5802034 	str	r2, [r0, #52]
51403e20:	e5902038 	ldr	r2, [r0, #56]
51403e24:	e3822020 	orr	r2, r2, #32	; 0x20
51403e28:	e5802038 	str	r2, [r0, #56]
51403e2c:	e5910004 	ldr	r0, [r1, #4]
51403e30:	e5902020 	ldr	r2, [r0, #32]
51403e34:	e3c220ff 	bic	r2, r2, #255	; 0xff
51403e38:	e3822022 	orr	r2, r2, #34	; 0x22
51403e3c:	e5802020 	str	r2, [r0, #32]
51403e40:	e5902028 	ldr	r2, [r0, #40]
51403e44:	e3c2200f 	bic	r2, r2, #15	; 0xf
51403e48:	e3822001 	orr	r2, r2, #1	; 0x1
51403e4c:	e5802028 	str	r2, [r0, #40]
51403e50:	e5910000 	ldr	r0, [r1]
51403e54:	e3a02003 	mov	r2, #3	; 0x3
51403e58:	e5802000 	str	r2, [r0]
51403e5c:	e59f10b0 	ldr	r1, [pc, #176]	; 51403f14 <__oldboot_ram_start+0x3f14>
51403e60:	e5801004 	str	r1, [r0, #4]
51403e64:	e3a01000 	mov	r1, #0	; 0x0
51403e68:	e5801008 	str	r1, [r0, #8]
51403e6c:	e580100c 	str	r1, [r0, #12]
51403e70:	ed9f0a28 	flds	s0, [pc, #160]
51403e74:	eebd8ac0 	ftosizs	s16, s0
51403e78:	ed9f1a27 	flds	s2, [pc, #156]
51403e7c:	ee181a10 	fmrs	r1, s16
51403e80:	ee001a90 	fmsr	s1, r1
51403e84:	eef80ae0 	fsitos	s1, s1
51403e88:	ee700a60 	fsubs	s1, s0, s1
51403e8c:	ee600a81 	fmuls	s1, s1, s2
51403e90:	eebc8ae0 	ftouizs	s16, s1
51403e94:	ee181a10 	fmrs	r1, s16
51403e98:	eebc8ac0 	ftouizs	s16, s0
51403e9c:	ee182a10 	fmrs	r2, s16
51403ea0:	e5802028 	str	r2, [r0, #40]
51403ea4:	e59f2074 	ldr	r2, [pc, #116]	; 51403f20 <__oldboot_ram_start+0x3f20>
51403ea8:	e7921101 	ldr	r1, [r2, r1, lsl #2]
51403eac:	e580102c 	str	r1, [r0, #44]
51403eb0:	ecbd8b02 	fldmiad	sp!, {d8}
51403eb4:	eafffee7 	b	51403a58 <__oldboot_ram_start+0x3a58>
51403eb8:	e92d4010 	stmdb	sp!, {r4, lr}
51403ebc:	e1a04000 	mov	r4, r0
51403ec0:	e1a00004 	mov	r0, r4
51403ec4:	ebffffa3 	bl	51403d58 <__oldboot_ram_start+0x3d58>
51403ec8:	e51f0260 	ldr	r0, [pc, #-608]	; 51403c70 <__oldboot_ram_start+0x3c70>
51403ecc:	e5900000 	ldr	r0, [r0]
51403ed0:	e5901010 	ldr	r1, [r0, #16]
51403ed4:	e3110002 	tst	r1, #2	; 0x2
51403ed8:	0afffffc 	beq	51403ed0 <__oldboot_ram_start+0x3ed0>
51403edc:	e5804020 	str	r4, [r0, #32]
51403ee0:	e8bd8010 	ldmia	sp!, {r4, pc}
51403ee4:	e51f027c 	ldr	r0, [pc, #-636]	; 51403c70 <__oldboot_ram_start+0x3c70>
51403ee8:	e5900000 	ldr	r0, [r0]
51403eec:	e5901010 	ldr	r1, [r0, #16]
51403ef0:	e3110001 	tst	r1, #1	; 0x1
51403ef4:	0a000001 	beq	51403f00 <__oldboot_ram_start+0x3f00>
51403ef8:	e5900024 	ldr	r0, [r0, #36]
51403efc:	e12fff1e 	bx	lr
51403f00:	e3e00000 	mvn	r0, #0	; 0x0
51403f04:	eafffffc 	b	51403efc <__oldboot_ram_start+0x3efc>
51403f08:	7f005800 	svcvc	0x00005800
51403f0c:	7f008000 	svcvc	0x00008000
51403f10:	7e00f000 	cdpvc	0, 0, cr15, cr0, cr0, {0}
51403f14:	00000305 	andeq	r0, r0, r5, lsl #6
51403f18:	41885072 	orrmi	r5, r8, r2, ror r0
51403f1c:	41800000 	orrmi	r0, r0, r0
51403f20:	51440244 	cmppl	r4, r4, asr #4
51403f24:	e12fff1e 	bx	lr
51403f28:	e12fff1e 	bx	lr
51403f2c:	e1a01000 	mov	r1, r0
51403f30:	e3a00b02 	mov	r0, #2048	; 0x800
51403f34:	e5810000 	str	r0, [r1]
51403f38:	e3a00000 	mov	r0, #0	; 0x0
51403f3c:	e12fff1e 	bx	lr
51403f40:	e92d4070 	stmdb	sp!, {r4, r5, r6, lr}
51403f44:	e24dd040 	sub	sp, sp, #64	; 0x40
51403f48:	e1a05000 	mov	r5, r0
51403f4c:	e3a06000 	mov	r6, #0	; 0x0
51403f50:	e28d0030 	add	r0, sp, #48	; 0x30
51403f54:	e3a01000 	mov	r1, #0	; 0x0
51403f58:	e3a02000 	mov	r2, #0	; 0x0
51403f5c:	e8a00006 	stmia	r0!, {r1, r2}
51403f60:	e8800006 	stmia	r0, {r1, r2}
51403f64:	e28d0020 	add	r0, sp, #32	; 0x20
51403f68:	e3a01000 	mov	r1, #0	; 0x0
51403f6c:	e3a02000 	mov	r2, #0	; 0x0
51403f70:	e8a00006 	stmia	r0!, {r1, r2}
51403f74:	e8800006 	stmia	r0, {r1, r2}
51403f78:	e28d0010 	add	r0, sp, #16	; 0x10
51403f7c:	e3a01000 	mov	r1, #0	; 0x0
51403f80:	e3a02000 	mov	r2, #0	; 0x0
51403f84:	e8a00006 	stmia	r0!, {r1, r2}
51403f88:	e8800006 	stmia	r0, {r1, r2}
51403f8c:	e1a0000d 	mov	r0, sp
51403f90:	e3a01000 	mov	r1, #0	; 0x0
51403f94:	e3a02000 	mov	r2, #0	; 0x0
51403f98:	e8a00006 	stmia	r0!, {r1, r2}
51403f9c:	e8800006 	stmia	r0, {r1, r2}
51403fa0:	e59f02e4 	ldr	r0, [pc, #740]	; 5140428c <__oldboot_ram_start+0x428c>
51403fa4:	e5900000 	ldr	r0, [r0]
51403fa8:	e3500000 	cmp	r0, #0	; 0x0
51403fac:	0a0000b3 	beq	51404280 <__oldboot_ram_start+0x4280>
51403fb0:	e3a02008 	mov	r2, #8	; 0x8
51403fb4:	e28f1fb5 	add	r1, pc, #724	; 0x2d4
51403fb8:	e59f02dc 	ldr	r0, [pc, #732]	; 5140429c <__oldboot_ram_start+0x429c>
51403fbc:	eb00aec6 	bl	5142fadc <__oldboot_ram_start+0x2fadc>
51403fc0:	e3a00a11 	mov	r0, #69632	; 0x11000
51403fc4:	e59f12d0 	ldr	r1, [pc, #720]	; 5140429c <__oldboot_ram_start+0x429c>
51403fc8:	e5810008 	str	r0, [r1, #8]
51403fcc:	e3a00004 	mov	r0, #4	; 0x4
51403fd0:	e581000c 	str	r0, [r1, #12]
51403fd4:	e3a00003 	mov	r0, #3	; 0x3
51403fd8:	e5810010 	str	r0, [r1, #16]
51403fdc:	e3a00022 	mov	r0, #34	; 0x22
51403fe0:	e2811010 	add	r1, r1, #16	; 0x10
51403fe4:	e5810004 	str	r0, [r1, #4]
51403fe8:	e3a00008 	mov	r0, #8	; 0x8
51403fec:	e5810008 	str	r0, [r1, #8]
51403ff0:	e3a000f8 	mov	r0, #248	; 0xf8
51403ff4:	e581000c 	str	r0, [r1, #12]
51403ff8:	e3a00201 	mov	r0, #268435456	; 0x10000000
51403ffc:	e5810010 	str	r0, [r1, #16]
51404000:	e3a00001 	mov	r0, #1	; 0x1
51404004:	e2811010 	add	r1, r1, #16	; 0x10
51404008:	e5810004 	str	r0, [r1, #4]
5140400c:	e3a00c01 	mov	r0, #256	; 0x100
51404010:	e5810008 	str	r0, [r1, #8]
51404014:	e3a00fce 	mov	r0, #824	; 0x338
51404018:	e581000c 	str	r0, [r1, #12]
5140401c:	e3a00008 	mov	r0, #8	; 0x8
51404020:	e2411010 	sub	r1, r1, #16	; 0x10
51404024:	e5810020 	str	r0, [r1, #32]
51404028:	e3a00001 	mov	r0, #1	; 0x1
5140402c:	e2811020 	add	r1, r1, #32	; 0x20
51404030:	e5810004 	str	r0, [r1, #4]
51404034:	e59f0264 	ldr	r0, [pc, #612]	; 514042a0 <__oldboot_ram_start+0x42a0>
51404038:	e5810008 	str	r0, [r1, #8]
5140403c:	e24000ae 	sub	r0, r0, #174	; 0xae
51404040:	e581000c 	str	r0, [r1, #12]
51404044:	e3a00211 	mov	r0, #268435457	; 0x10000001
51404048:	e2411020 	sub	r1, r1, #32	; 0x20
5140404c:	e5810030 	str	r0, [r1, #48]
51404050:	e3a00001 	mov	r0, #1	; 0x1
51404054:	e2811030 	add	r1, r1, #48	; 0x30
51404058:	e5810004 	str	r0, [r1, #4]
5140405c:	e59f0240 	ldr	r0, [pc, #576]	; 514042a4 <__oldboot_ram_start+0x42a4>
51404060:	e5810008 	str	r0, [r1, #8]
51404064:	e3a00010 	mov	r0, #16	; 0x10
51404068:	e581000c 	str	r0, [r1, #12]
5140406c:	eb0066f7 	bl	5141dc50 <__oldboot_ram_start+0x1dc50>
51404070:	e1a04000 	mov	r4, r0
51404074:	e3540000 	cmp	r4, #0	; 0x0
51404078:	0a000005 	beq	51404094 <__oldboot_ram_start+0x4094>
5140407c:	e284c47f 	add	ip, r4, #2130706432	; 0x7f000000
51404080:	e29cc8ee 	adds	ip, ip, #15597568	; 0xee0000
51404084:	0a000002 	beq	51404094 <__oldboot_ram_start+0x4094>
51404088:	ea000000 	b	51404090 <__oldboot_ram_start+0x4090>
5140408c:	e2866001 	add	r6, r6, #1	; 0x1
51404090:	eafffffd 	b	5140408c <__oldboot_ram_start+0x408c>
51404094:	e3a00000 	mov	r0, #0	; 0x0
51404098:	eb006835 	bl	5141e174 <__oldboot_ram_start+0x1e174>
5140409c:	e3500000 	cmp	r0, #0	; 0x0
514040a0:	1a000001 	bne	514040ac <__oldboot_ram_start+0x40ac>
514040a4:	e3550000 	cmp	r5, #0	; 0x0
514040a8:	0a000017 	beq	5140410c <__oldboot_ram_start+0x410c>
514040ac:	e3a00001 	mov	r0, #1	; 0x1
514040b0:	e59f11f0 	ldr	r1, [pc, #496]	; 514042a8 <__oldboot_ram_start+0x42a8>
514040b4:	e5810000 	str	r0, [r1]
514040b8:	e3a02000 	mov	r2, #0	; 0x0
514040bc:	e59f11d8 	ldr	r1, [pc, #472]	; 5140429c <__oldboot_ram_start+0x429c>
514040c0:	e3a00000 	mov	r0, #0	; 0x0
514040c4:	eb0067b4 	bl	5141df9c <__oldboot_ram_start+0x1df9c>
514040c8:	e1a04000 	mov	r4, r0
514040cc:	e3a00000 	mov	r0, #0	; 0x0
514040d0:	e59f11d0 	ldr	r1, [pc, #464]	; 514042a8 <__oldboot_ram_start+0x42a8>
514040d4:	e5810000 	str	r0, [r1]
514040d8:	e3540000 	cmp	r4, #0	; 0x0
514040dc:	0a000002 	beq	514040ec <__oldboot_ram_start+0x40ec>
514040e0:	ea000000 	b	514040e8 <__oldboot_ram_start+0x40e8>
514040e4:	e2866001 	add	r6, r6, #1	; 0x1
514040e8:	eafffffd 	b	514040e4 <__oldboot_ram_start+0x40e4>
514040ec:	e3a00000 	mov	r0, #0	; 0x0
514040f0:	eb00681f 	bl	5141e174 <__oldboot_ram_start+0x1e174>
514040f4:	e1a04000 	mov	r4, r0
514040f8:	e3540000 	cmp	r4, #0	; 0x0
514040fc:	0a000002 	beq	5140410c <__oldboot_ram_start+0x410c>
51404100:	ea000000 	b	51404108 <__oldboot_ram_start+0x4108>
51404104:	e2866001 	add	r6, r6, #1	; 0x1
51404108:	eafffffd 	b	51404104 <__oldboot_ram_start+0x4104>
5140410c:	e28d2030 	add	r2, sp, #48	; 0x30
51404110:	e3a01003 	mov	r1, #3	; 0x3
51404114:	e3a00000 	mov	r0, #0	; 0x0
51404118:	eb007281 	bl	51420b24 <__oldboot_ram_start+0x20b24>
5140411c:	e28d2010 	add	r2, sp, #16	; 0x10
51404120:	e3a01201 	mov	r1, #268435456	; 0x10000000
51404124:	e3a00000 	mov	r0, #0	; 0x0
51404128:	eb00727d 	bl	51420b24 <__oldboot_ram_start+0x20b24>
5140412c:	e28d2020 	add	r2, sp, #32	; 0x20
51404130:	e3a01008 	mov	r1, #8	; 0x8
51404134:	e3a00000 	mov	r0, #0	; 0x0
51404138:	eb007279 	bl	51420b24 <__oldboot_ram_start+0x20b24>
5140413c:	e1a0200d 	mov	r2, sp
51404140:	e3a01211 	mov	r1, #268435457	; 0x10000001
51404144:	e3a00000 	mov	r0, #0	; 0x0
51404148:	eb007275 	bl	51420b24 <__oldboot_ram_start+0x20b24>
5140414c:	e59f1158 	ldr	r1, [pc, #344]	; 514042ac <__oldboot_ram_start+0x42ac>
51404150:	e59d0018 	ldr	r0, [sp, #24]
51404154:	e5911008 	ldr	r1, [r1, #8]
51404158:	e1500001 	cmp	r0, r1
5140415c:	0a000016 	beq	514041bc <__oldboot_ram_start+0x41bc>
51404160:	e3a00000 	mov	r0, #0	; 0x0
51404164:	eb00684a 	bl	5141e294 <__oldboot_ram_start+0x1e294>
51404168:	e3a00001 	mov	r0, #1	; 0x1
5140416c:	e59f1134 	ldr	r1, [pc, #308]	; 514042a8 <__oldboot_ram_start+0x42a8>
51404170:	e5810000 	str	r0, [r1]
51404174:	e3a02000 	mov	r2, #0	; 0x0
51404178:	e59f111c 	ldr	r1, [pc, #284]	; 5140429c <__oldboot_ram_start+0x429c>
5140417c:	e3a00000 	mov	r0, #0	; 0x0
51404180:	eb006785 	bl	5141df9c <__oldboot_ram_start+0x1df9c>
51404184:	e1a04000 	mov	r4, r0
51404188:	e3a00000 	mov	r0, #0	; 0x0
5140418c:	e59f1114 	ldr	r1, [pc, #276]	; 514042a8 <__oldboot_ram_start+0x42a8>
51404190:	e5810000 	str	r0, [r1]
51404194:	e3540000 	cmp	r4, #0	; 0x0
51404198:	0a000001 	beq	514041a4 <__oldboot_ram_start+0x41a4>
5140419c:	e320f000 	nop	{0}
514041a0:	eafffffe 	b	514041a0 <__oldboot_ram_start+0x41a0>
514041a4:	e3a00000 	mov	r0, #0	; 0x0
514041a8:	eb0067f1 	bl	5141e174 <__oldboot_ram_start+0x1e174>
514041ac:	e3500000 	cmp	r0, #0	; 0x0
514041b0:	0a000027 	beq	51404254 <__oldboot_ram_start+0x4254>
514041b4:	e320f000 	nop	{0}
514041b8:	eafffffe 	b	514041b8 <__oldboot_ram_start+0x41b8>
514041bc:	e59f10ec 	ldr	r1, [pc, #236]	; 514042b0 <__oldboot_ram_start+0x42b0>
514041c0:	e59d0028 	ldr	r0, [sp, #40]
514041c4:	e5911008 	ldr	r1, [r1, #8]
514041c8:	e1500001 	cmp	r0, r1
514041cc:	1a000009 	bne	514041f8 <__oldboot_ram_start+0x41f8>
514041d0:	e59f10d8 	ldr	r1, [pc, #216]	; 514042b0 <__oldboot_ram_start+0x42b0>
514041d4:	e59d002c 	ldr	r0, [sp, #44]
514041d8:	e591100c 	ldr	r1, [r1, #12]
514041dc:	e1500001 	cmp	r0, r1
514041e0:	1a000004 	bne	514041f8 <__oldboot_ram_start+0x41f8>
514041e4:	e59f10c8 	ldr	r1, [pc, #200]	; 514042b4 <__oldboot_ram_start+0x42b4>
514041e8:	e59d0008 	ldr	r0, [sp, #8]
514041ec:	e5911008 	ldr	r1, [r1, #8]
514041f0:	e1500001 	cmp	r0, r1
514041f4:	0a000016 	beq	51404254 <__oldboot_ram_start+0x4254>
514041f8:	e3a00000 	mov	r0, #0	; 0x0
514041fc:	eb006824 	bl	5141e294 <__oldboot_ram_start+0x1e294>
51404200:	e3a00001 	mov	r0, #1	; 0x1
51404204:	e59f109c 	ldr	r1, [pc, #156]	; 514042a8 <__oldboot_ram_start+0x42a8>
51404208:	e5810000 	str	r0, [r1]
5140420c:	e3a02001 	mov	r2, #1	; 0x1
51404210:	e59f1084 	ldr	r1, [pc, #132]	; 5140429c <__oldboot_ram_start+0x429c>
51404214:	e3a00000 	mov	r0, #0	; 0x0
51404218:	eb00675f 	bl	5141df9c <__oldboot_ram_start+0x1df9c>
5140421c:	e1a04000 	mov	r4, r0
51404220:	e3a00000 	mov	r0, #0	; 0x0
51404224:	e59f107c 	ldr	r1, [pc, #124]	; 514042a8 <__oldboot_ram_start+0x42a8>
51404228:	e5810000 	str	r0, [r1]
5140422c:	e3540000 	cmp	r4, #0	; 0x0
51404230:	0a000001 	beq	5140423c <__oldboot_ram_start+0x423c>
51404234:	e320f000 	nop	{0}
51404238:	eafffffe 	b	51404238 <__oldboot_ram_start+0x4238>
5140423c:	e3a00000 	mov	r0, #0	; 0x0
51404240:	eb0067cb 	bl	5141e174 <__oldboot_ram_start+0x1e174>
51404244:	e3500000 	cmp	r0, #0	; 0x0
51404248:	0a000001 	beq	51404254 <__oldboot_ram_start+0x4254>
5140424c:	e320f000 	nop	{0}
51404250:	eafffffe 	b	51404250 <__oldboot_ram_start+0x4250>
51404254:	e3a00000 	mov	r0, #0	; 0x0
51404258:	e59f102c 	ldr	r1, [pc, #44]	; 5140428c <__oldboot_ram_start+0x428c>
5140425c:	e5810000 	str	r0, [r1]
51404260:	e3a020ff 	mov	r2, #255	; 0xff
51404264:	e3a01e79 	mov	r1, #1936	; 0x790
51404268:	e59f0048 	ldr	r0, [pc, #72]	; 514042b8 <__oldboot_ram_start+0x42b8>
5140426c:	eb00eb8d 	bl	5143f0a8 <__oldboot_ram_start+0x3f0a8>
51404270:	e3a01000 	mov	r1, #0	; 0x0
51404274:	e59f003c 	ldr	r0, [pc, #60]	; 514042b8 <__oldboot_ram_start+0x42b8>
51404278:	eb0073d8 	bl	514211e0 <__oldboot_ram_start+0x211e0>
5140427c:	e1a04000 	mov	r4, r0
51404280:	e3a00000 	mov	r0, #0	; 0x0
51404284:	e28dd040 	add	sp, sp, #64	; 0x40
51404288:	e8bd8070 	ldmia	sp!, {r4, r5, r6, pc}
5140428c:	514449e0 	smlalttpl	r4, r4, r0, r9
51404290:	50525358 	subpls	r5, r2, r8, asr r3
51404294:	49545241 	ldmmidb	r4, {r0, r6, r9, ip, lr}^
51404298:	00000000 	andeq	r0, r0, r0
5140429c:	51494810 	cmppl	r9, r0, lsl r8
514042a0:	00000438 	andeq	r0, r0, r8, lsr r4
514042a4:	000007c2 	andeq	r0, r0, r2, asr #15
514042a8:	514449dc 	ldrpld	r4, [r4, #-156]
514042ac:	51494830 	cmppl	r9, r0, lsr r8
514042b0:	51494840 	cmppl	r9, r0, asr #16
514042b4:	51494850 	cmppl	r9, r0, asr r8
514042b8:	51495210 	cmppl	r9, r0, lsl r2
514042bc:	e92d4ff7 	stmdb	sp!, {r0, r1, r2, r4, r5, r6, r7, r8, r9, sl, fp, lr}
514042c0:	e24dd010 	sub	sp, sp, #16	; 0x10
514042c4:	e1a05001 	mov	r5, r1
514042c8:	e1a04002 	mov	r4, r2
514042cc:	e3a0a000 	mov	sl, #0	; 0x0
514042d0:	e59f0490 	ldr	r0, [pc, #1168]	; 51404768 <__oldboot_ram_start+0x4768>
514042d4:	e5900000 	ldr	r0, [r0]
514042d8:	e3500000 	cmp	r0, #0	; 0x0
514042dc:	0a000004 	beq	514042f4 <__oldboot_ram_start+0x42f4>
514042e0:	e3a00000 	mov	r0, #0	; 0x0
514042e4:	ebffff15 	bl	51403f40 <__oldboot_ram_start+0x3f40>
514042e8:	e3a00001 	mov	r0, #1	; 0x1
514042ec:	e59f1478 	ldr	r1, [pc, #1144]	; 5140476c <__oldboot_ram_start+0x476c>
514042f0:	e5810000 	str	r0, [r1]
514042f4:	e3a00000 	mov	r0, #0	; 0x0
514042f8:	e59f1468 	ldr	r1, [pc, #1128]	; 51404768 <__oldboot_ram_start+0x4768>
514042fc:	e5810000 	str	r0, [r1]
51404300:	e1a074a5 	mov	r7, r5, lsr #9
51404304:	e0459487 	sub	r9, r5, r7, lsl #9
51404308:	e0840009 	add	r0, r4, r9
5140430c:	e0841009 	add	r1, r4, r9
51404310:	e1a014a1 	mov	r1, r1, lsr #9
51404314:	e0500481 	subs	r0, r0, r1, lsl #9
51404318:	0a000003 	beq	5140432c <__oldboot_ram_start+0x432c>
5140431c:	e0840009 	add	r0, r4, r9
51404320:	e3a01001 	mov	r1, #1	; 0x1
51404324:	e081b4a0 	add	fp, r1, r0, lsr #9
51404328:	ea000001 	b	51404334 <__oldboot_ram_start+0x4334>
5140432c:	e0840009 	add	r0, r4, r9
51404330:	e1a0b4a0 	mov	fp, r0, lsr #9
51404334:	e28d000c 	add	r0, sp, #12	; 0xc
51404338:	ebfffefb 	bl	51403f2c <__oldboot_ram_start+0x3f2c>
5140433c:	e1a08000 	mov	r8, r0
51404340:	e3580000 	cmp	r8, #0	; 0x0
51404344:	0a000002 	beq	51404354 <__oldboot_ram_start+0x4354>
51404348:	e1a00008 	mov	r0, r8
5140434c:	e28dd01c 	add	sp, sp, #28	; 0x1c
51404350:	e8bd8ff0 	ldmia	sp!, {r4, r5, r6, r7, r8, r9, sl, fp, pc}
51404354:	e087000b 	add	r0, r7, fp
51404358:	e59d100c 	ldr	r1, [sp, #12]
5140435c:	e1500401 	cmp	r0, r1, lsl #8
51404360:	9a000001 	bls	5140436c <__oldboot_ram_start+0x436c>
51404364:	e3a00004 	mov	r0, #4	; 0x4
51404368:	eafffff7 	b	5140434c <__oldboot_ram_start+0x434c>
5140436c:	ea000073 	b	51404540 <__oldboot_ram_start+0x4540>
51404370:	e3590000 	cmp	r9, #0	; 0x0
51404374:	0a000027 	beq	51404418 <__oldboot_ram_start+0x4418>
51404378:	e2696c02 	rsb	r6, r9, #512	; 0x200
5140437c:	e1540006 	cmp	r4, r6
51404380:	2a000000 	bcs	51404388 <__oldboot_ram_start+0x4388>
51404384:	e1a06004 	mov	r6, r4
51404388:	ebfffee5 	bl	51403f24 <__oldboot_ram_start+0x3f24>
5140438c:	e3570b02 	cmp	r7, #2048	; 0x800
51404390:	3a000009 	bcc	514043bc <__oldboot_ram_start+0x43bc>
51404394:	e3a03002 	mov	r3, #2	; 0x2
51404398:	e3a02000 	mov	r2, #0	; 0x0
5140439c:	e1cd20f0 	strd	r2, [sp]
514043a0:	e59f33c8 	ldr	r3, [pc, #968]	; 51404770 <__oldboot_ram_start+0x4770>
514043a4:	e3a02001 	mov	r2, #1	; 0x1
514043a8:	e1a01007 	mov	r1, r7
514043ac:	e3a00000 	mov	r0, #0	; 0x0
514043b0:	eb006893 	bl	5141e604 <__oldboot_ram_start+0x1e604>
514043b4:	e1a08000 	mov	r8, r0
514043b8:	ea000008 	b	514043e0 <__oldboot_ram_start+0x43e0>
514043bc:	e3a03004 	mov	r3, #4	; 0x4
514043c0:	e3a02000 	mov	r2, #0	; 0x0
514043c4:	e1cd20f0 	strd	r2, [sp]
514043c8:	e59f33a0 	ldr	r3, [pc, #928]	; 51404770 <__oldboot_ram_start+0x4770>
514043cc:	e3a02001 	mov	r2, #1	; 0x1
514043d0:	e1a01007 	mov	r1, r7
514043d4:	e3a00000 	mov	r0, #0	; 0x0
514043d8:	eb006889 	bl	5141e604 <__oldboot_ram_start+0x1e604>
514043dc:	e1a08000 	mov	r8, r0
514043e0:	e59f0388 	ldr	r0, [pc, #904]	; 51404770 <__oldboot_ram_start+0x4770>
514043e4:	e0801009 	add	r1, r0, r9
514043e8:	e1a02006 	mov	r2, r6
514043ec:	e59d0010 	ldr	r0, [sp, #16]
514043f0:	eb00adb9 	bl	5142fadc <__oldboot_ram_start+0x2fadc>
514043f4:	ebfffecb 	bl	51403f28 <__oldboot_ram_start+0x3f28>
514043f8:	e59d0010 	ldr	r0, [sp, #16]
514043fc:	e0800006 	add	r0, r0, r6
51404400:	e58d0010 	str	r0, [sp, #16]
51404404:	e0444006 	sub	r4, r4, r6
51404408:	e2877001 	add	r7, r7, #1	; 0x1
5140440c:	e28aa001 	add	sl, sl, #1	; 0x1
51404410:	e3a09000 	mov	r9, #0	; 0x0
51404414:	ea000043 	b	51404528 <__oldboot_ram_start+0x4528>
51404418:	e3540c02 	cmp	r4, #512	; 0x200
5140441c:	3a00001f 	bcc	514044a0 <__oldboot_ram_start+0x44a0>
51404420:	e1a004a4 	mov	r0, r4, lsr #9
51404424:	e1a06480 	mov	r6, r0, lsl #9
51404428:	e3570b02 	cmp	r7, #2048	; 0x800
5140442c:	3a000009 	bcc	51404458 <__oldboot_ram_start+0x4458>
51404430:	e3a03002 	mov	r3, #2	; 0x2
51404434:	e3a02000 	mov	r2, #0	; 0x0
51404438:	e1cd20f0 	strd	r2, [sp]
5140443c:	e1a024a6 	mov	r2, r6, lsr #9
51404440:	e1a01007 	mov	r1, r7
51404444:	e3a00000 	mov	r0, #0	; 0x0
51404448:	e59d3010 	ldr	r3, [sp, #16]
5140444c:	eb006aba 	bl	5141ef3c <__oldboot_ram_start+0x1ef3c>
51404450:	e1a08000 	mov	r8, r0
51404454:	ea000008 	b	5140447c <__oldboot_ram_start+0x447c>
51404458:	e3a03004 	mov	r3, #4	; 0x4
5140445c:	e3a02000 	mov	r2, #0	; 0x0
51404460:	e1cd20f0 	strd	r2, [sp]
51404464:	e1a024a6 	mov	r2, r6, lsr #9
51404468:	e1a01007 	mov	r1, r7
5140446c:	e3a00000 	mov	r0, #0	; 0x0
51404470:	e59d3010 	ldr	r3, [sp, #16]
51404474:	eb006ab0 	bl	5141ef3c <__oldboot_ram_start+0x1ef3c>
51404478:	e1a08000 	mov	r8, r0
5140447c:	e1a004a6 	mov	r0, r6, lsr #9
51404480:	e59d1010 	ldr	r1, [sp, #16]
51404484:	e0810480 	add	r0, r1, r0, lsl #9
51404488:	e58d0010 	str	r0, [sp, #16]
5140448c:	e1a004a6 	mov	r0, r6, lsr #9
51404490:	e0444480 	sub	r4, r4, r0, lsl #9
51404494:	e08774a6 	add	r7, r7, r6, lsr #9
51404498:	e08aa4a6 	add	sl, sl, r6, lsr #9
5140449c:	ea000021 	b	51404528 <__oldboot_ram_start+0x4528>
514044a0:	e1a06004 	mov	r6, r4
514044a4:	ebfffe9e 	bl	51403f24 <__oldboot_ram_start+0x3f24>
514044a8:	e3570b02 	cmp	r7, #2048	; 0x800
514044ac:	3a000009 	bcc	514044d8 <__oldboot_ram_start+0x44d8>
514044b0:	e3a03002 	mov	r3, #2	; 0x2
514044b4:	e3a02000 	mov	r2, #0	; 0x0
514044b8:	e1cd20f0 	strd	r2, [sp]
514044bc:	e59f32ac 	ldr	r3, [pc, #684]	; 51404770 <__oldboot_ram_start+0x4770>
514044c0:	e3a02001 	mov	r2, #1	; 0x1
514044c4:	e1a01007 	mov	r1, r7
514044c8:	e3a00000 	mov	r0, #0	; 0x0
514044cc:	eb00684c 	bl	5141e604 <__oldboot_ram_start+0x1e604>
514044d0:	e1a08000 	mov	r8, r0
514044d4:	ea000008 	b	514044fc <__oldboot_ram_start+0x44fc>
514044d8:	e3a03004 	mov	r3, #4	; 0x4
514044dc:	e3a02000 	mov	r2, #0	; 0x0
514044e0:	e1cd20f0 	strd	r2, [sp]
514044e4:	e59f3284 	ldr	r3, [pc, #644]	; 51404770 <__oldboot_ram_start+0x4770>
514044e8:	e3a02001 	mov	r2, #1	; 0x1
514044ec:	e1a01007 	mov	r1, r7
514044f0:	e3a00000 	mov	r0, #0	; 0x0
514044f4:	eb006842 	bl	5141e604 <__oldboot_ram_start+0x1e604>
514044f8:	e1a08000 	mov	r8, r0
514044fc:	e1a02006 	mov	r2, r6
51404500:	e59f1268 	ldr	r1, [pc, #616]	; 51404770 <__oldboot_ram_start+0x4770>
51404504:	e59d0010 	ldr	r0, [sp, #16]
51404508:	eb00ad73 	bl	5142fadc <__oldboot_ram_start+0x2fadc>
5140450c:	ebfffe85 	bl	51403f28 <__oldboot_ram_start+0x3f28>
51404510:	e59d0010 	ldr	r0, [sp, #16]
51404514:	e0800006 	add	r0, r0, r6
51404518:	e58d0010 	str	r0, [sp, #16]
5140451c:	e0444006 	sub	r4, r4, r6
51404520:	e2877001 	add	r7, r7, #1	; 0x1
51404524:	e28aa001 	add	sl, sl, #1	; 0x1
51404528:	e3580000 	cmp	r8, #0	; 0x0
5140452c:	0a000003 	beq	51404540 <__oldboot_ram_start+0x4540>
51404530:	e1b00848 	movs	r0, r8, asr #16
51404534:	0a000001 	beq	51404540 <__oldboot_ram_start+0x4540>
51404538:	e3a00006 	mov	r0, #6	; 0x6
5140453c:	eaffff82 	b	5140434c <__oldboot_ram_start+0x434c>
51404540:	e15a000b 	cmp	sl, fp
51404544:	3affff89 	bcc	51404370 <__oldboot_ram_start+0x4370>
51404548:	e3a00000 	mov	r0, #0	; 0x0
5140454c:	eaffff7e 	b	5140434c <__oldboot_ram_start+0x434c>
51404550:	e92d4ff7 	stmdb	sp!, {r0, r1, r2, r4, r5, r6, r7, r8, r9, sl, fp, lr}
51404554:	e24dd010 	sub	sp, sp, #16	; 0x10
51404558:	e1a06001 	mov	r6, r1
5140455c:	e1a04002 	mov	r4, r2
51404560:	e1a074a6 	mov	r7, r6, lsr #9
51404564:	e046b487 	sub	fp, r6, r7, lsl #9
51404568:	e35b0000 	cmp	fp, #0	; 0x0
5140456c:	0a000001 	beq	51404578 <__oldboot_ram_start+0x4578>
51404570:	e320f000 	nop	{0}
51404574:	eafffffe 	b	51404574 <__oldboot_ram_start+0x4574>
51404578:	e320f000 	nop	{0}
5140457c:	e1a004a4 	mov	r0, r4, lsr #9
51404580:	e0540480 	subs	r0, r4, r0, lsl #9
51404584:	0a000002 	beq	51404594 <__oldboot_ram_start+0x4594>
51404588:	e3a00001 	mov	r0, #1	; 0x1
5140458c:	e080a4a4 	add	sl, r0, r4, lsr #9
51404590:	ea000000 	b	51404598 <__oldboot_ram_start+0x4598>
51404594:	e1a0a4a4 	mov	sl, r4, lsr #9
51404598:	e28d000c 	add	r0, sp, #12	; 0xc
5140459c:	ebfffe62 	bl	51403f2c <__oldboot_ram_start+0x3f2c>
514045a0:	e1a05000 	mov	r5, r0
514045a4:	e3550000 	cmp	r5, #0	; 0x0
514045a8:	0a000002 	beq	514045b8 <__oldboot_ram_start+0x45b8>
514045ac:	e1a00005 	mov	r0, r5
514045b0:	e28dd01c 	add	sp, sp, #28	; 0x1c
514045b4:	e8bd8ff0 	ldmia	sp!, {r4, r5, r6, r7, r8, r9, sl, fp, pc}
514045b8:	e087000a 	add	r0, r7, sl
514045bc:	e59d100c 	ldr	r1, [sp, #12]
514045c0:	e1500401 	cmp	r0, r1, lsl #8
514045c4:	9a000001 	bls	514045d0 <__oldboot_ram_start+0x45d0>
514045c8:	e3a00004 	mov	r0, #4	; 0x4
514045cc:	eafffff7 	b	514045b0 <__oldboot_ram_start+0x45b0>
514045d0:	e3a09000 	mov	r9, #0	; 0x0
514045d4:	ea000023 	b	51404668 <__oldboot_ram_start+0x4668>
514045d8:	e2540c02 	subs	r0, r4, #512	; 0x200
514045dc:	4a00000d 	bmi	51404618 <__oldboot_ram_start+0x4618>
514045e0:	e1a004a4 	mov	r0, r4, lsr #9
514045e4:	e1a08480 	mov	r8, r0, lsl #9
514045e8:	e3a03002 	mov	r3, #2	; 0x2
514045ec:	e3a02000 	mov	r2, #0	; 0x0
514045f0:	e1cd20f0 	strd	r2, [sp]
514045f4:	e1a024a4 	mov	r2, r4, lsr #9
514045f8:	e1a01007 	mov	r1, r7
514045fc:	e3a00000 	mov	r0, #0	; 0x0
51404600:	e59d3010 	ldr	r3, [sp, #16]
51404604:	eb006d28 	bl	5141faac <__oldboot_ram_start+0x1faac>
51404608:	e1a05000 	mov	r5, r0
5140460c:	e08774a8 	add	r7, r7, r8, lsr #9
51404610:	e08994a8 	add	r9, r9, r8, lsr #9
51404614:	ea00000b 	b	51404648 <__oldboot_ram_start+0x4648>
51404618:	e1a08004 	mov	r8, r4
5140461c:	e3a03002 	mov	r3, #2	; 0x2
51404620:	e3a02000 	mov	r2, #0	; 0x0
51404624:	e1cd20f0 	strd	r2, [sp]
51404628:	e3a02001 	mov	r2, #1	; 0x1
5140462c:	e1a01007 	mov	r1, r7
51404630:	e3a00000 	mov	r0, #0	; 0x0
51404634:	e59d3010 	ldr	r3, [sp, #16]
51404638:	eb006a50 	bl	5141ef80 <__oldboot_ram_start+0x1ef80>
5140463c:	e1a05000 	mov	r5, r0
51404640:	e2877001 	add	r7, r7, #1	; 0x1
51404644:	e2899001 	add	r9, r9, #1	; 0x1
51404648:	e3550000 	cmp	r5, #0	; 0x0
5140464c:	0a000001 	beq	51404658 <__oldboot_ram_start+0x4658>
51404650:	e3a00007 	mov	r0, #7	; 0x7
51404654:	eaffffd5 	b	514045b0 <__oldboot_ram_start+0x45b0>
51404658:	e59d0010 	ldr	r0, [sp, #16]
5140465c:	e0800008 	add	r0, r0, r8
51404660:	e58d0010 	str	r0, [sp, #16]
51404664:	e0444008 	sub	r4, r4, r8
51404668:	e159000a 	cmp	r9, sl
5140466c:	3affffd9 	bcc	514045d8 <__oldboot_ram_start+0x45d8>
51404670:	e3a00000 	mov	r0, #0	; 0x0
51404674:	eaffffcd 	b	514045b0 <__oldboot_ram_start+0x45b0>
51404678:	e92d40f8 	stmdb	sp!, {r3, r4, r5, r6, r7, lr}
5140467c:	e1a04000 	mov	r4, r0
51404680:	e1a05001 	mov	r5, r1
51404684:	e1a0000d 	mov	r0, sp
51404688:	ebfffe27 	bl	51403f2c <__oldboot_ram_start+0x3f2c>
5140468c:	e1a06000 	mov	r6, r0
51404690:	e3560000 	cmp	r6, #0	; 0x0
51404694:	0a000001 	beq	514046a0 <__oldboot_ram_start+0x46a0>
51404698:	e1a00006 	mov	r0, r6
5140469c:	e8bd80f8 	ldmia	sp!, {r3, r4, r5, r6, r7, pc}
514046a0:	e0840005 	add	r0, r4, r5
514046a4:	e59d1000 	ldr	r1, [sp]
514046a8:	e1500001 	cmp	r0, r1
514046ac:	9a000001 	bls	514046b8 <__oldboot_ram_start+0x46b8>
514046b0:	e3a00004 	mov	r0, #4	; 0x4
514046b4:	eafffff8 	b	5140469c <__oldboot_ram_start+0x469c>
514046b8:	e3a07000 	mov	r7, #0	; 0x0
514046bc:	ea000008 	b	514046e4 <__oldboot_ram_start+0x46e4>
514046c0:	e0841007 	add	r1, r4, r7
514046c4:	e3a02000 	mov	r2, #0	; 0x0
514046c8:	e3a00000 	mov	r0, #0	; 0x0
514046cc:	eb006ff9 	bl	514206b8 <__oldboot_ram_start+0x206b8>
514046d0:	e3500000 	cmp	r0, #0	; 0x0
514046d4:	0a000001 	beq	514046e0 <__oldboot_ram_start+0x46e0>
514046d8:	e3a00008 	mov	r0, #8	; 0x8
514046dc:	eaffffee 	b	5140469c <__oldboot_ram_start+0x469c>
514046e0:	e2877001 	add	r7, r7, #1	; 0x1
514046e4:	e1570005 	cmp	r7, r5
514046e8:	3afffff4 	bcc	514046c0 <__oldboot_ram_start+0x46c0>
514046ec:	e3a00000 	mov	r0, #0	; 0x0
514046f0:	eaffffe9 	b	5140469c <__oldboot_ram_start+0x469c>
514046f4:	e1a02000 	mov	r2, r0
514046f8:	e3a000ec 	mov	r0, #236	; 0xec
514046fc:	e5c20000 	strb	r0, [r2]
51404700:	e3a00071 	mov	r0, #113	; 0x71
51404704:	e5c10000 	strb	r0, [r1]
51404708:	e3a00000 	mov	r0, #0	; 0x0
5140470c:	e12fff1e 	bx	lr
51404710:	e3a00000 	mov	r0, #0	; 0x0
51404714:	e12fff1e 	bx	lr
51404718:	e92d401f 	stmdb	sp!, {r0, r1, r2, r3, r4, lr}
5140471c:	e1a04000 	mov	r4, r0
51404720:	e28d300c 	add	r3, sp, #12	; 0xc
51404724:	e3a02000 	mov	r2, #0	; 0x0
51404728:	e58d2000 	str	r2, [sp]
5140472c:	e1cd20f4 	strd	r2, [sp, #4]
51404730:	e3a03000 	mov	r3, #0	; 0x0
51404734:	e59f1038 	ldr	r1, [pc, #56]	; 51404774 <__oldboot_ram_start+0x4774>
51404738:	e3a00000 	mov	r0, #0	; 0x0
5140473c:	eb006107 	bl	5141cb60 <__oldboot_ram_start+0x1cb60>
51404740:	e3500000 	cmp	r0, #0	; 0x0
51404744:	0a000001 	beq	51404750 <__oldboot_ram_start+0x4750>
51404748:	e320f000 	nop	{0}
5140474c:	eafffffe 	b	5140474c <__oldboot_ram_start+0x474c>
51404750:	e3a00000 	mov	r0, #0	; 0x0
51404754:	e28dd010 	add	sp, sp, #16	; 0x10
51404758:	e8bd8010 	ldmia	sp!, {r4, pc}
5140475c:	e1a01000 	mov	r1, r0
51404760:	e3a00000 	mov	r0, #0	; 0x0
51404764:	e12fff1e 	bx	lr
51404768:	514449d4 	ldrpld	r4, [r4, #-148]
5140476c:	514449d8 	ldrpld	r4, [r4, #-152]
51404770:	51494a10 	cmppl	r9, r0, lsl sl
51404774:	00040006 	andeq	r0, r4, r6
51404778:	e12fff1e 	bx	lr
5140477c:	e12fff1e 	bx	lr
51404780:	e12fff1e 	bx	lr
51404784:	e52de004 	str	lr, [sp, #-4]!
51404788:	e3500000 	cmp	r0, #0	; 0x0
5140478c:	1a000005 	bne	514047a8 <__oldboot_ram_start+0x47a8>
51404790:	e59f0048 	ldr	r0, [pc, #72]	; 514047e0 <__oldboot_ram_start+0x47e0>
51404794:	e5901000 	ldr	r1, [r0]
51404798:	e3510000 	cmp	r1, #0	; 0x0
5140479c:	0afffffc 	beq	51404794 <__oldboot_ram_start+0x4794>
514047a0:	ebfffff4 	bl	51404778 <__oldboot_ram_start+0x4778>
514047a4:	eafffffa 	b	51404794 <__oldboot_ram_start+0x4794>
514047a8:	e49df004 	ldr	pc, [sp], #4
514047ac:	e59f0030 	ldr	r0, [pc, #48]	; 514047e4 <__oldboot_ram_start+0x47e4>
514047b0:	e12fff1e 	bx	lr
514047b4:	e92d4010 	stmdb	sp!, {r4, lr}
514047b8:	e3a01611 	mov	r1, #17825792	; 0x1100000
514047bc:	e281044f 	add	r0, r1, #1325400064	; 0x4f000000
514047c0:	e3a02602 	mov	r2, #2097152	; 0x200000
514047c4:	ebfffebc 	bl	514042bc <__oldboot_ram_start+0x42bc>
514047c8:	e3500000 	cmp	r0, #0	; 0x0
514047cc:	0a000001 	beq	514047d8 <__oldboot_ram_start+0x47d8>
514047d0:	e3a00001 	mov	r0, #1	; 0x1
514047d4:	e8bd8010 	ldmia	sp!, {r4, pc}
514047d8:	e3a00000 	mov	r0, #0	; 0x0
514047dc:	eafffffc 	b	514047d4 <__oldboot_ram_start+0x47d4>
514047e0:	5a0b003c 	bpl	516c48d8 <__oldboot_ram_start+0x2c48d8>
514047e4:	51400000 	cmppl	r0, r0
514047e8:	e92d41fc 	stmdb	sp!, {r2, r3, r4, r5, r6, r7, r8, lr}
514047ec:	e1a07000 	mov	r7, r0
514047f0:	e3a08040 	mov	r8, #64	; 0x40
514047f4:	e0685588 	rsb	r5, r8, r8, lsl #11
514047f8:	e3a00000 	mov	r0, #0	; 0x0
514047fc:	eb00accf 	bl	5142fb40 <__oldboot_ram_start+0x2fb40>
51404800:	e3500000 	cmp	r0, #0	; 0x0
51404804:	1a000001 	bne	51404810 <__oldboot_ram_start+0x4810>
51404808:	e3a00000 	mov	r0, #0	; 0x0
5140480c:	e8bd81fc 	ldmia	sp!, {r2, r3, r4, r5, r6, r7, r8, pc}
51404810:	e59f04e0 	ldr	r0, [pc, #1248]	; 51404cf8 <__oldboot_ram_start+0x4cf8>
51404814:	e3a01b02 	mov	r1, #2048	; 0x800
51404818:	eb00ea57 	bl	5143f17c <__oldboot_ram_start+0x3f17c>
5140481c:	e3a04001 	mov	r4, #1	; 0x1
51404820:	e3a06000 	mov	r6, #0	; 0x0
51404824:	e59f24d0 	ldr	r2, [pc, #1232]	; 51404cfc <__oldboot_ram_start+0x4cfc>
51404828:	e3a03000 	mov	r3, #0	; 0x0
5140482c:	e0850006 	add	r0, r5, r6
51404830:	e1cd20f0 	strd	r2, [sp]
51404834:	e2423b02 	sub	r3, r2, #2048	; 0x800
51404838:	e1a01100 	mov	r1, r0, lsl #2
5140483c:	e3a00000 	mov	r0, #0	; 0x0
51404840:	e3a02004 	mov	r2, #4	; 0x4
51404844:	eb00b793 	bl	51432698 <__oldboot_ram_start+0x32698>
51404848:	e3500000 	cmp	r0, #0	; 0x0
5140484c:	0a00000b 	beq	51404880 <__oldboot_ram_start+0x4880>
51404850:	e3540001 	cmp	r4, #1	; 0x1
51404854:	1a000003 	bne	51404868 <__oldboot_ram_start+0x4868>
51404858:	e3a04002 	mov	r4, #2	; 0x2
5140485c:	e0455008 	sub	r5, r5, r8
51404860:	e3a06000 	mov	r6, #0	; 0x0
51404864:	ea00001d 	b	514048e0 <__oldboot_ram_start+0x48e0>
51404868:	e3540002 	cmp	r4, #2	; 0x2
5140486c:	1a000003 	bne	51404880 <__oldboot_ram_start+0x4880>
51404870:	e3a00000 	mov	r0, #0	; 0x0
51404874:	eb00acb3 	bl	5142fb48 <__oldboot_ram_start+0x2fb48>
51404878:	e3a00000 	mov	r0, #0	; 0x0
5140487c:	eaffffe2 	b	5140480c <__oldboot_ram_start+0x480c>
51404880:	e59f1478 	ldr	r1, [pc, #1144]	; 51404d00 <__oldboot_ram_start+0x4d00>
51404884:	e3a02c02 	mov	r2, #512	; 0x200
51404888:	e2410b02 	sub	r0, r1, #2048	; 0x800
5140488c:	eb00e9db 	bl	5143f000 <__oldboot_ram_start+0x3f000>
51404890:	e3500000 	cmp	r0, #0	; 0x0
51404894:	1a000005 	bne	514048b0 <__oldboot_ram_start+0x48b0>
51404898:	e59f145c 	ldr	r1, [pc, #1116]	; 51404cfc <__oldboot_ram_start+0x4cfc>
5140489c:	e3a02008 	mov	r2, #8	; 0x8
514048a0:	e2410a01 	sub	r0, r1, #4096	; 0x1000
514048a4:	eb00e9d5 	bl	5143f000 <__oldboot_ram_start+0x3f000>
514048a8:	e3500000 	cmp	r0, #0	; 0x0
514048ac:	0a00000b 	beq	514048e0 <__oldboot_ram_start+0x48e0>
514048b0:	e3540001 	cmp	r4, #1	; 0x1
514048b4:	1a000003 	bne	514048c8 <__oldboot_ram_start+0x48c8>
514048b8:	e0455008 	sub	r5, r5, r8
514048bc:	e3a06000 	mov	r6, #0	; 0x0
514048c0:	e3a04002 	mov	r4, #2	; 0x2
514048c4:	ea000005 	b	514048e0 <__oldboot_ram_start+0x48e0>
514048c8:	e3540002 	cmp	r4, #2	; 0x2
514048cc:	1a000003 	bne	514048e0 <__oldboot_ram_start+0x48e0>
514048d0:	e3a00000 	mov	r0, #0	; 0x0
514048d4:	eb00ac9b 	bl	5142fb48 <__oldboot_ram_start+0x2fb48>
514048d8:	e3a00000 	mov	r0, #0	; 0x0
514048dc:	eaffffca 	b	5140480c <__oldboot_ram_start+0x480c>
514048e0:	e2866001 	add	r6, r6, #1	; 0x1
514048e4:	e3560004 	cmp	r6, #4	; 0x4
514048e8:	baffffcd 	blt	51404824 <__oldboot_ram_start+0x4824>
514048ec:	e59f2408 	ldr	r2, [pc, #1032]	; 51404cfc <__oldboot_ram_start+0x4cfc>
514048f0:	e3a03000 	mov	r3, #0	; 0x0
514048f4:	e2850005 	add	r0, r5, #5	; 0x5
514048f8:	e1cd20f0 	strd	r2, [sp]
514048fc:	e2423b02 	sub	r3, r2, #2048	; 0x800
51404900:	e1a01100 	mov	r1, r0, lsl #2
51404904:	e3a00000 	mov	r0, #0	; 0x0
51404908:	e3a02004 	mov	r2, #4	; 0x4
5140490c:	eb00b761 	bl	51432698 <__oldboot_ram_start+0x32698>
51404910:	e3500000 	cmp	r0, #0	; 0x0
51404914:	0a000003 	beq	51404928 <__oldboot_ram_start+0x4928>
51404918:	e3a00000 	mov	r0, #0	; 0x0
5140491c:	eb00ac89 	bl	5142fb48 <__oldboot_ram_start+0x2fb48>
51404920:	e3a00000 	mov	r0, #0	; 0x0
51404924:	eaffffb8 	b	5140480c <__oldboot_ram_start+0x480c>
51404928:	e59f13d0 	ldr	r1, [pc, #976]	; 51404d00 <__oldboot_ram_start+0x4d00>
5140492c:	e3a020fa 	mov	r2, #250	; 0xfa
51404930:	e1a00007 	mov	r0, r7
51404934:	eb00ea21 	bl	5143f1c0 <__oldboot_ram_start+0x3f1c0>
51404938:	e5d70000 	ldrb	r0, [r7]
5140493c:	e350007f 	cmp	r0, #127	; 0x7f
51404940:	1a00000c 	bne	51404978 <__oldboot_ram_start+0x4978>
51404944:	e5d70001 	ldrb	r0, [r7, #1]
51404948:	e35000aa 	cmp	r0, #170	; 0xaa
5140494c:	1a000009 	bne	51404978 <__oldboot_ram_start+0x4978>
51404950:	e5d70002 	ldrb	r0, [r7, #2]
51404954:	e35000af 	cmp	r0, #175	; 0xaf
51404958:	1a000006 	bne	51404978 <__oldboot_ram_start+0x4978>
5140495c:	e5d70003 	ldrb	r0, [r7, #3]
51404960:	e350007e 	cmp	r0, #126	; 0x7e
51404964:	1a000003 	bne	51404978 <__oldboot_ram_start+0x4978>
51404968:	e3a00000 	mov	r0, #0	; 0x0
5140496c:	eb00ac75 	bl	5142fb48 <__oldboot_ram_start+0x2fb48>
51404970:	e3a00001 	mov	r0, #1	; 0x1
51404974:	eaffffa4 	b	5140480c <__oldboot_ram_start+0x480c>
51404978:	e3540001 	cmp	r4, #1	; 0x1
5140497c:	1a000002 	bne	5140498c <__oldboot_ram_start+0x498c>
51404980:	e0455008 	sub	r5, r5, r8
51404984:	e3a04000 	mov	r4, #0	; 0x0
51404988:	ea000009 	b	514049b4 <__oldboot_ram_start+0x49b4>
5140498c:	e3540002 	cmp	r4, #2	; 0x2
51404990:	1a000003 	bne	514049a4 <__oldboot_ram_start+0x49a4>
51404994:	e3a00000 	mov	r0, #0	; 0x0
51404998:	eb00ac6a 	bl	5142fb48 <__oldboot_ram_start+0x2fb48>
5140499c:	e3a00000 	mov	r0, #0	; 0x0
514049a0:	eaffff99 	b	5140480c <__oldboot_ram_start+0x480c>
514049a4:	e3a00000 	mov	r0, #0	; 0x0
514049a8:	eb00ac66 	bl	5142fb48 <__oldboot_ram_start+0x2fb48>
514049ac:	e3a00000 	mov	r0, #0	; 0x0
514049b0:	eaffff95 	b	5140480c <__oldboot_ram_start+0x480c>
514049b4:	e59f2340 	ldr	r2, [pc, #832]	; 51404cfc <__oldboot_ram_start+0x4cfc>
514049b8:	e3a03000 	mov	r3, #0	; 0x0
514049bc:	e0850004 	add	r0, r5, r4
514049c0:	e1cd20f0 	strd	r2, [sp]
514049c4:	e2423b02 	sub	r3, r2, #2048	; 0x800
514049c8:	e1a01100 	mov	r1, r0, lsl #2
514049cc:	e3a00000 	mov	r0, #0	; 0x0
514049d0:	e3a02004 	mov	r2, #4	; 0x4
514049d4:	eb00b72f 	bl	51432698 <__oldboot_ram_start+0x32698>
514049d8:	e3500000 	cmp	r0, #0	; 0x0
514049dc:	0a000003 	beq	514049f0 <__oldboot_ram_start+0x49f0>
514049e0:	e3a00000 	mov	r0, #0	; 0x0
514049e4:	eb00ac57 	bl	5142fb48 <__oldboot_ram_start+0x2fb48>
514049e8:	e3a00000 	mov	r0, #0	; 0x0
514049ec:	eaffff86 	b	5140480c <__oldboot_ram_start+0x480c>
514049f0:	e59f1308 	ldr	r1, [pc, #776]	; 51404d00 <__oldboot_ram_start+0x4d00>
514049f4:	e3a02c02 	mov	r2, #512	; 0x200
514049f8:	e2410b02 	sub	r0, r1, #2048	; 0x800
514049fc:	eb00e97f 	bl	5143f000 <__oldboot_ram_start+0x3f000>
51404a00:	e3500000 	cmp	r0, #0	; 0x0
51404a04:	1a000005 	bne	51404a20 <__oldboot_ram_start+0x4a20>
51404a08:	e59f12ec 	ldr	r1, [pc, #748]	; 51404cfc <__oldboot_ram_start+0x4cfc>
51404a0c:	e3a02008 	mov	r2, #8	; 0x8
51404a10:	e2410a01 	sub	r0, r1, #4096	; 0x1000
51404a14:	eb00e979 	bl	5143f000 <__oldboot_ram_start+0x3f000>
51404a18:	e3500000 	cmp	r0, #0	; 0x0
51404a1c:	0a000003 	beq	51404a30 <__oldboot_ram_start+0x4a30>
51404a20:	e3a00000 	mov	r0, #0	; 0x0
51404a24:	eb00ac47 	bl	5142fb48 <__oldboot_ram_start+0x2fb48>
51404a28:	e3a00000 	mov	r0, #0	; 0x0
51404a2c:	eaffff76 	b	5140480c <__oldboot_ram_start+0x480c>
51404a30:	e2844001 	add	r4, r4, #1	; 0x1
51404a34:	e3540004 	cmp	r4, #4	; 0x4
51404a38:	baffffdd 	blt	514049b4 <__oldboot_ram_start+0x49b4>
51404a3c:	e59f22b8 	ldr	r2, [pc, #696]	; 51404cfc <__oldboot_ram_start+0x4cfc>
51404a40:	e3a03000 	mov	r3, #0	; 0x0
51404a44:	e2850005 	add	r0, r5, #5	; 0x5
51404a48:	e1cd20f0 	strd	r2, [sp]
51404a4c:	e2423b02 	sub	r3, r2, #2048	; 0x800
51404a50:	e1a01100 	mov	r1, r0, lsl #2
51404a54:	e3a00000 	mov	r0, #0	; 0x0
51404a58:	e3a02004 	mov	r2, #4	; 0x4
51404a5c:	eb00b70d 	bl	51432698 <__oldboot_ram_start+0x32698>
51404a60:	e3500000 	cmp	r0, #0	; 0x0
51404a64:	0a000003 	beq	51404a78 <__oldboot_ram_start+0x4a78>
51404a68:	e3a00000 	mov	r0, #0	; 0x0
51404a6c:	eb00ac35 	bl	5142fb48 <__oldboot_ram_start+0x2fb48>
51404a70:	e3a00000 	mov	r0, #0	; 0x0
51404a74:	eaffff64 	b	5140480c <__oldboot_ram_start+0x480c>
51404a78:	e59f1280 	ldr	r1, [pc, #640]	; 51404d00 <__oldboot_ram_start+0x4d00>
51404a7c:	e3a020fa 	mov	r2, #250	; 0xfa
51404a80:	e1a00007 	mov	r0, r7
51404a84:	eb00e9cd 	bl	5143f1c0 <__oldboot_ram_start+0x3f1c0>
51404a88:	e5d70000 	ldrb	r0, [r7]
51404a8c:	e350007f 	cmp	r0, #127	; 0x7f
51404a90:	1a00000c 	bne	51404ac8 <__oldboot_ram_start+0x4ac8>
51404a94:	e5d70001 	ldrb	r0, [r7, #1]
51404a98:	e35000aa 	cmp	r0, #170	; 0xaa
51404a9c:	1a000009 	bne	51404ac8 <__oldboot_ram_start+0x4ac8>
51404aa0:	e5d70002 	ldrb	r0, [r7, #2]
51404aa4:	e35000af 	cmp	r0, #175	; 0xaf
51404aa8:	1a000006 	bne	51404ac8 <__oldboot_ram_start+0x4ac8>
51404aac:	e5d70003 	ldrb	r0, [r7, #3]
51404ab0:	e350007e 	cmp	r0, #126	; 0x7e
51404ab4:	1a000003 	bne	51404ac8 <__oldboot_ram_start+0x4ac8>
51404ab8:	e3a00000 	mov	r0, #0	; 0x0
51404abc:	eb00ac21 	bl	5142fb48 <__oldboot_ram_start+0x2fb48>
51404ac0:	e3a00001 	mov	r0, #1	; 0x1
51404ac4:	eaffff50 	b	5140480c <__oldboot_ram_start+0x480c>
51404ac8:	e3a00000 	mov	r0, #0	; 0x0
51404acc:	eb00ac1d 	bl	5142fb48 <__oldboot_ram_start+0x2fb48>
51404ad0:	e3a00000 	mov	r0, #0	; 0x0
51404ad4:	eaffff4c 	b	5140480c <__oldboot_ram_start+0x480c>
51404ad8:	eaffff42 	b	514047e8 <__oldboot_ram_start+0x47e8>
51404adc:	e92d4030 	stmdb	sp!, {r4, r5, lr}
51404ae0:	e24ddf81 	sub	sp, sp, #516	; 0x204
51404ae4:	e1a05000 	mov	r5, r0
51404ae8:	e59f4214 	ldr	r4, [pc, #532]	; 51404d04 <__oldboot_ram_start+0x4d04>
51404aec:	ebfffd0c 	bl	51403f24 <__oldboot_ram_start+0x3f24>
51404af0:	e3a02c02 	mov	r2, #512	; 0x200
51404af4:	e1a01004 	mov	r1, r4
51404af8:	e28d0004 	add	r0, sp, #4	; 0x4
51404afc:	ebfffdee 	bl	514042bc <__oldboot_ram_start+0x42bc>
51404b00:	e1a04000 	mov	r4, r0
51404b04:	ebfffd07 	bl	51403f28 <__oldboot_ram_start+0x3f28>
51404b08:	e3540000 	cmp	r4, #0	; 0x0
51404b0c:	0a000002 	beq	51404b1c <__oldboot_ram_start+0x4b1c>
51404b10:	e3a00000 	mov	r0, #0	; 0x0
51404b14:	e28ddf81 	add	sp, sp, #516	; 0x204
51404b18:	e8bd8030 	ldmia	sp!, {r4, r5, pc}
51404b1c:	e59d0004 	ldr	r0, [sp, #4]
51404b20:	e5850000 	str	r0, [r5]
51404b24:	e3a00001 	mov	r0, #1	; 0x1
51404b28:	eafffff9 	b	51404b14 <__oldboot_ram_start+0x4b14>
51404b2c:	e92d4030 	stmdb	sp!, {r4, r5, lr}
51404b30:	e24ddf81 	sub	sp, sp, #516	; 0x204
51404b34:	e1a04000 	mov	r4, r0
51404b38:	e59f51c4 	ldr	r5, [pc, #452]	; 51404d04 <__oldboot_ram_start+0x4d04>
51404b3c:	e3a01c02 	mov	r1, #512	; 0x200
51404b40:	e28d0004 	add	r0, sp, #4	; 0x4
51404b44:	eb00e976 	bl	5143f124 <__oldboot_ram_start+0x3f124>
51404b48:	e58d4004 	str	r4, [sp, #4]
51404b4c:	ebfffcf4 	bl	51403f24 <__oldboot_ram_start+0x3f24>
51404b50:	e1a008c5 	mov	r0, r5, asr #17
51404b54:	e3a01001 	mov	r1, #1	; 0x1
51404b58:	ebfffec6 	bl	51404678 <__oldboot_ram_start+0x4678>
51404b5c:	e3500000 	cmp	r0, #0	; 0x0
51404b60:	0a000003 	beq	51404b74 <__oldboot_ram_start+0x4b74>
51404b64:	ebfffcef 	bl	51403f28 <__oldboot_ram_start+0x3f28>
51404b68:	e3a00000 	mov	r0, #0	; 0x0
51404b6c:	e28ddf81 	add	sp, sp, #516	; 0x204
51404b70:	e8bd8030 	ldmia	sp!, {r4, r5, pc}
51404b74:	e3a02c02 	mov	r2, #512	; 0x200
51404b78:	e1a01005 	mov	r1, r5
51404b7c:	e28d0004 	add	r0, sp, #4	; 0x4
51404b80:	ebfffe72 	bl	51404550 <__oldboot_ram_start+0x4550>
51404b84:	e1a04000 	mov	r4, r0
51404b88:	ebfffce6 	bl	51403f28 <__oldboot_ram_start+0x3f28>
51404b8c:	e3540000 	cmp	r4, #0	; 0x0
51404b90:	0a000001 	beq	51404b9c <__oldboot_ram_start+0x4b9c>
51404b94:	e3a00000 	mov	r0, #0	; 0x0
51404b98:	eafffff3 	b	51404b6c <__oldboot_ram_start+0x4b6c>
51404b9c:	e3a00001 	mov	r0, #1	; 0x1
51404ba0:	eafffff1 	b	51404b6c <__oldboot_ram_start+0x4b6c>
51404ba4:	e92d4038 	stmdb	sp!, {r3, r4, r5, lr}
51404ba8:	e1a04000 	mov	r4, r0
51404bac:	e3a05000 	mov	r5, #0	; 0x0
51404bb0:	e3a00000 	mov	r0, #0	; 0x0
51404bb4:	e58d0000 	str	r0, [sp]
51404bb8:	e1a0000d 	mov	r0, sp
51404bbc:	ebffffc6 	bl	51404adc <__oldboot_ram_start+0x4adc>
51404bc0:	e59d0000 	ldr	r0, [sp]
51404bc4:	e240ccff 	sub	ip, r0, #65280	; 0xff00
51404bc8:	e25cc0ff 	subs	ip, ip, #255	; 0xff
51404bcc:	0a00000d 	beq	51404c08 <__oldboot_ram_start+0x4c08>
51404bd0:	e3540001 	cmp	r4, #1	; 0x1
51404bd4:	0a000005 	beq	51404bf0 <__oldboot_ram_start+0x4bf0>
51404bd8:	e3540002 	cmp	r4, #2	; 0x2
51404bdc:	0a000003 	beq	51404bf0 <__oldboot_ram_start+0x4bf0>
51404be0:	e3540004 	cmp	r4, #4	; 0x4
51404be4:	0a000001 	beq	51404bf0 <__oldboot_ram_start+0x4bf0>
51404be8:	e3540008 	cmp	r4, #8	; 0x8
51404bec:	1a000005 	bne	51404c08 <__oldboot_ram_start+0x4c08>
51404bf0:	e2200cff 	eor	r0, r0, #65280	; 0xff00
51404bf4:	e22000ff 	eor	r0, r0, #255	; 0xff
51404bf8:	e58d0000 	str	r0, [sp]
51404bfc:	e1d40000 	bics	r0, r4, r0
51404c00:	1a000000 	bne	51404c08 <__oldboot_ram_start+0x4c08>
51404c04:	e3a05001 	mov	r5, #1	; 0x1
51404c08:	e1a00005 	mov	r0, r5
51404c0c:	e8bd8038 	ldmia	sp!, {r3, r4, r5, pc}
51404c10:	e92d4038 	stmdb	sp!, {r3, r4, r5, lr}
51404c14:	e1a04000 	mov	r4, r0
51404c18:	e3a05000 	mov	r5, #0	; 0x0
51404c1c:	e3a00000 	mov	r0, #0	; 0x0
51404c20:	e58d0000 	str	r0, [sp]
51404c24:	e1a0000d 	mov	r0, sp
51404c28:	ebffffab 	bl	51404adc <__oldboot_ram_start+0x4adc>
51404c2c:	e244ccff 	sub	ip, r4, #65280	; 0xff00
51404c30:	e25cc0fe 	subs	ip, ip, #254	; 0xfe
51404c34:	0a000008 	beq	51404c5c <__oldboot_ram_start+0x4c5c>
51404c38:	e244ccff 	sub	ip, r4, #65280	; 0xff00
51404c3c:	e25cc0fd 	subs	ip, ip, #253	; 0xfd
51404c40:	0a000005 	beq	51404c5c <__oldboot_ram_start+0x4c5c>
51404c44:	e244ccff 	sub	ip, r4, #65280	; 0xff00
51404c48:	e25cc0fb 	subs	ip, ip, #251	; 0xfb
51404c4c:	0a000002 	beq	51404c5c <__oldboot_ram_start+0x4c5c>
51404c50:	e244ccff 	sub	ip, r4, #65280	; 0xff00
51404c54:	e25cc0f7 	subs	ip, ip, #247	; 0xf7
51404c58:	1a000009 	bne	51404c84 <__oldboot_ram_start+0x4c84>
51404c5c:	e59d0000 	ldr	r0, [sp]
51404c60:	e0000004 	and	r0, r0, r4
51404c64:	e58d0000 	str	r0, [sp]
51404c68:	ebffffaf 	bl	51404b2c <__oldboot_ram_start+0x4b2c>
51404c6c:	e1a0000d 	mov	r0, sp
51404c70:	ebffff99 	bl	51404adc <__oldboot_ram_start+0x4adc>
51404c74:	e59d0000 	ldr	r0, [sp]
51404c78:	e1d00004 	bics	r0, r0, r4
51404c7c:	1a000000 	bne	51404c84 <__oldboot_ram_start+0x4c84>
51404c80:	e3a05001 	mov	r5, #1	; 0x1
51404c84:	e1a00005 	mov	r0, r5
51404c88:	e8bd8038 	ldmia	sp!, {r3, r4, r5, pc}
51404c8c:	e92d4038 	stmdb	sp!, {r3, r4, r5, lr}
51404c90:	e1a04000 	mov	r4, r0
51404c94:	e3a05000 	mov	r5, #0	; 0x0
51404c98:	e3a00000 	mov	r0, #0	; 0x0
51404c9c:	e58d0000 	str	r0, [sp]
51404ca0:	e1a0000d 	mov	r0, sp
51404ca4:	ebffff8c 	bl	51404adc <__oldboot_ram_start+0x4adc>
51404ca8:	e3540001 	cmp	r4, #1	; 0x1
51404cac:	0a000005 	beq	51404cc8 <__oldboot_ram_start+0x4cc8>
51404cb0:	e3540002 	cmp	r4, #2	; 0x2
51404cb4:	0a000003 	beq	51404cc8 <__oldboot_ram_start+0x4cc8>
51404cb8:	e3540004 	cmp	r4, #4	; 0x4
51404cbc:	0a000001 	beq	51404cc8 <__oldboot_ram_start+0x4cc8>
51404cc0:	e3540008 	cmp	r4, #8	; 0x8
51404cc4:	1a000009 	bne	51404cf0 <__oldboot_ram_start+0x4cf0>
51404cc8:	e59d0000 	ldr	r0, [sp]
51404ccc:	e1800004 	orr	r0, r0, r4
51404cd0:	e58d0000 	str	r0, [sp]
51404cd4:	ebffff94 	bl	51404b2c <__oldboot_ram_start+0x4b2c>
51404cd8:	e1a0000d 	mov	r0, sp
51404cdc:	ebffff7e 	bl	51404adc <__oldboot_ram_start+0x4adc>
51404ce0:	e59d0000 	ldr	r0, [sp]
51404ce4:	e1d40000 	bics	r0, r4, r0
51404ce8:	1a000000 	bne	51404cf0 <__oldboot_ram_start+0x4cf0>
51404cec:	e3a05001 	mov	r5, #1	; 0x1
51404cf0:	e1a00005 	mov	r0, r5
51404cf4:	e8bd8038 	ldmia	sp!, {r3, r4, r5, pc}
51404cf8:	514959a0 	smlaltbpl	r5, r9, r0, r9
51404cfc:	514969a0 	smlaltbpl	r6, r9, r0, r9
51404d00:	514961a0 	smlaltbpl	r6, r9, r0, r1
51404d04:	0f940000 	svceq	0x00940000
51404d08:	e12fff1e 	bx	lr
51404d0c:	e12fff1e 	bx	lr
51404d10:	e92d4070 	stmdb	sp!, {r4, r5, r6, lr}
51404d14:	e1a04000 	mov	r4, r0
51404d18:	e59f09b0 	ldr	r0, [pc, #2480]	; 514056d0 <__oldboot_ram_start+0x56d0>
51404d1c:	e59f69b0 	ldr	r6, [pc, #2480]	; 514056d4 <__oldboot_ram_start+0x56d4>
51404d20:	e3540000 	cmp	r4, #0	; 0x0
51404d24:	e5900000 	ldr	r0, [r0]
51404d28:	e5961000 	ldr	r1, [r6]
51404d2c:	e0815000 	add	r5, r1, r0
51404d30:	0a000004 	beq	51404d48 <__oldboot_ram_start+0x4d48>
51404d34:	e5960000 	ldr	r0, [r6]
51404d38:	e1540000 	cmp	r4, r0
51404d3c:	3a000003 	bcc	51404d50 <__oldboot_ram_start+0x4d50>
51404d40:	e1550004 	cmp	r5, r4
51404d44:	9a000001 	bls	51404d50 <__oldboot_ram_start+0x4d50>
51404d48:	e3a00001 	mov	r0, #1	; 0x1
51404d4c:	ea000000 	b	51404d54 <__oldboot_ram_start+0x4d54>
51404d50:	e3a00000 	mov	r0, #0	; 0x0
51404d54:	e3a01000 	mov	r1, #0	; 0x0
51404d58:	ebfffe89 	bl	51404784 <__oldboot_ram_start+0x4784>
51404d5c:	e3540000 	cmp	r4, #0	; 0x0
51404d60:	0a000005 	beq	51404d7c <__oldboot_ram_start+0x4d7c>
51404d64:	e5960000 	ldr	r0, [r6]
51404d68:	e1540000 	cmp	r4, r0
51404d6c:	3a000001 	bcc	51404d78 <__oldboot_ram_start+0x4d78>
51404d70:	e1550004 	cmp	r5, r4
51404d74:	8a000000 	bhi	51404d7c <__oldboot_ram_start+0x4d7c>
51404d78:	eafffffe 	b	51404d78 <__oldboot_ram_start+0x4d78>
51404d7c:	e59f1954 	ldr	r1, [pc, #2388]	; 514056d8 <__oldboot_ram_start+0x56d8>
51404d80:	e5910000 	ldr	r0, [r1]
51404d84:	e5911000 	ldr	r1, [r1]
51404d88:	e1a00034 	mov	r0, r4, lsr r0
51404d8c:	e1a01110 	mov	r1, r0, lsl r1
51404d90:	e1510004 	cmp	r1, r4
51404d94:	1a000000 	bne	51404d9c <__oldboot_ram_start+0x4d9c>
51404d98:	ebfffe77 	bl	5140477c <__oldboot_ram_start+0x477c>
51404d9c:	e3a00001 	mov	r0, #1	; 0x1
51404da0:	e8bd8070 	ldmia	sp!, {r4, r5, r6, pc}
51404da4:	e92d4070 	stmdb	sp!, {r4, r5, r6, lr}
51404da8:	e1a04000 	mov	r4, r0
51404dac:	e59f091c 	ldr	r0, [pc, #2332]	; 514056d0 <__oldboot_ram_start+0x56d0>
51404db0:	e59f691c 	ldr	r6, [pc, #2332]	; 514056d4 <__oldboot_ram_start+0x56d4>
51404db4:	e3540000 	cmp	r4, #0	; 0x0
51404db8:	e5900000 	ldr	r0, [r0]
51404dbc:	e5961000 	ldr	r1, [r6]
51404dc0:	e0815000 	add	r5, r1, r0
51404dc4:	0a000004 	beq	51404ddc <__oldboot_ram_start+0x4ddc>
51404dc8:	e5960000 	ldr	r0, [r6]
51404dcc:	e1540000 	cmp	r4, r0
51404dd0:	3a000003 	bcc	51404de4 <__oldboot_ram_start+0x4de4>
51404dd4:	e1550004 	cmp	r5, r4
51404dd8:	9a000001 	bls	51404de4 <__oldboot_ram_start+0x4de4>
51404ddc:	e3a00001 	mov	r0, #1	; 0x1
51404de0:	ea000000 	b	51404de8 <__oldboot_ram_start+0x4de8>
51404de4:	e3a00000 	mov	r0, #0	; 0x0
51404de8:	e3a01000 	mov	r1, #0	; 0x0
51404dec:	ebfffe64 	bl	51404784 <__oldboot_ram_start+0x4784>
51404df0:	e3540000 	cmp	r4, #0	; 0x0
51404df4:	0a000005 	beq	51404e10 <__oldboot_ram_start+0x4e10>
51404df8:	e5960000 	ldr	r0, [r6]
51404dfc:	e1540000 	cmp	r4, r0
51404e00:	3a000001 	bcc	51404e0c <__oldboot_ram_start+0x4e0c>
51404e04:	e1550004 	cmp	r5, r4
51404e08:	8a000000 	bhi	51404e10 <__oldboot_ram_start+0x4e10>
51404e0c:	eafffffe 	b	51404e0c <__oldboot_ram_start+0x4e0c>
51404e10:	e59f28c4 	ldr	r2, [pc, #2244]	; 514056dc <__oldboot_ram_start+0x56dc>
51404e14:	e2840c02 	add	r0, r4, #512	; 0x200
51404e18:	e5921000 	ldr	r1, [r2]
51404e1c:	e5922000 	ldr	r2, [r2]
51404e20:	e1a00130 	mov	r0, r0, lsr r1
51404e24:	e59f18b4 	ldr	r1, [pc, #2228]	; 514056e0 <__oldboot_ram_start+0x56e0>
51404e28:	e5911000 	ldr	r1, [r1]
51404e2c:	e0841001 	add	r1, r4, r1
51404e30:	e1500231 	cmp	r0, r1, lsr r2
51404e34:	0a000001 	beq	51404e40 <__oldboot_ram_start+0x4e40>
51404e38:	e3a00001 	mov	r0, #1	; 0x1
51404e3c:	e8bd8070 	ldmia	sp!, {r4, r5, r6, pc}
51404e40:	e59f0890 	ldr	r0, [pc, #2192]	; 514056d8 <__oldboot_ram_start+0x56d8>
51404e44:	e5900000 	ldr	r0, [r0]
51404e48:	e1a00034 	mov	r0, r4, lsr r0
51404e4c:	ebfffe4b 	bl	51404780 <__oldboot_ram_start+0x4780>
51404e50:	e3a00001 	mov	r0, #1	; 0x1
51404e54:	eafffff8 	b	51404e3c <__oldboot_ram_start+0x4e3c>
51404e58:	e92d40f0 	stmdb	sp!, {r4, r5, r6, r7, lr}
51404e5c:	e24dd04c 	sub	sp, sp, #76	; 0x4c
51404e60:	e1a06000 	mov	r6, r0
51404e64:	e1a07001 	mov	r7, r1
51404e68:	e3a04006 	mov	r4, #6	; 0x6
51404e6c:	ebfffe41 	bl	51404778 <__oldboot_ram_start+0x4778>
51404e70:	e3a01040 	mov	r1, #64	; 0x40
51404e74:	e28d000c 	add	r0, sp, #12	; 0xc
51404e78:	eb00e8a9 	bl	5143f124 <__oldboot_ram_start+0x3f124>
51404e7c:	e59f1860 	ldr	r1, [pc, #2144]	; 514056e4 <__oldboot_ram_start+0x56e4>
51404e80:	e28d0008 	add	r0, sp, #8	; 0x8
51404e84:	eb003394 	bl	51411cdc <__oldboot_ram_start+0x11cdc>
51404e88:	e3500000 	cmp	r0, #0	; 0x0
51404e8c:	1a000019 	bne	51404ef8 <__oldboot_ram_start+0x4ef8>
51404e90:	e3a03001 	mov	r3, #1	; 0x1
51404e94:	e58d3000 	str	r3, [sp]
51404e98:	e59d3008 	ldr	r3, [sp, #8]
51404e9c:	e28d200c 	add	r2, sp, #12	; 0xc
51404ea0:	e1a01006 	mov	r1, r6
51404ea4:	e3a00040 	mov	r0, #64	; 0x40
51404ea8:	eb001445 	bl	51409fc4 <__oldboot_ram_start+0x9fc4>
51404eac:	e1a05000 	mov	r5, r0
51404eb0:	e59d0008 	ldr	r0, [sp, #8]
51404eb4:	eb0013da 	bl	51409e24 <__oldboot_ram_start+0x9e24>
51404eb8:	e3550000 	cmp	r5, #0	; 0x0
51404ebc:	da00000d 	ble	51404ef8 <__oldboot_ram_start+0x4ef8>
51404ec0:	e59f0820 	ldr	r0, [pc, #2080]	; 514056e8 <__oldboot_ram_start+0x56e8>
51404ec4:	eb00e92a 	bl	5143f374 <__oldboot_ram_start+0x3f374>
51404ec8:	e1a02000 	mov	r2, r0
51404ecc:	e59f1814 	ldr	r1, [pc, #2068]	; 514056e8 <__oldboot_ram_start+0x56e8>
51404ed0:	e28d000c 	add	r0, sp, #12	; 0xc
51404ed4:	eb00e8ed 	bl	5143f290 <__oldboot_ram_start+0x3f290>
51404ed8:	e3500000 	cmp	r0, #0	; 0x0
51404edc:	1a000005 	bne	51404ef8 <__oldboot_ram_start+0x4ef8>
51404ee0:	e3a02040 	mov	r2, #64	; 0x40
51404ee4:	e28d100c 	add	r1, sp, #12	; 0xc
51404ee8:	e1a00007 	mov	r0, r7
51404eec:	eb00e8b3 	bl	5143f1c0 <__oldboot_ram_start+0x3f1c0>
51404ef0:	e3a04000 	mov	r4, #0	; 0x0
51404ef4:	ea000040 	b	51404ffc <__oldboot_ram_start+0x4ffc>
51404ef8:	e59f07ec 	ldr	r0, [pc, #2028]	; 514056ec <__oldboot_ram_start+0x56ec>
51404efc:	e5900014 	ldr	r0, [r0, #20]
51404f00:	e3500000 	cmp	r0, #0	; 0x0
51404f04:	1a00001e 	bne	51404f84 <__oldboot_ram_start+0x4f84>
51404f08:	e59f17e0 	ldr	r1, [pc, #2016]	; 514056f0 <__oldboot_ram_start+0x56f0>
51404f0c:	e28d0008 	add	r0, sp, #8	; 0x8
51404f10:	eb003371 	bl	51411cdc <__oldboot_ram_start+0x11cdc>
51404f14:	e3500000 	cmp	r0, #0	; 0x0
51404f18:	1a000019 	bne	51404f84 <__oldboot_ram_start+0x4f84>
51404f1c:	e3a03001 	mov	r3, #1	; 0x1
51404f20:	e58d3000 	str	r3, [sp]
51404f24:	e59d3008 	ldr	r3, [sp, #8]
51404f28:	e28d200c 	add	r2, sp, #12	; 0xc
51404f2c:	e1a01006 	mov	r1, r6
51404f30:	e3a00040 	mov	r0, #64	; 0x40
51404f34:	eb001422 	bl	51409fc4 <__oldboot_ram_start+0x9fc4>
51404f38:	e1a05000 	mov	r5, r0
51404f3c:	e59d0008 	ldr	r0, [sp, #8]
51404f40:	eb0013b7 	bl	51409e24 <__oldboot_ram_start+0x9e24>
51404f44:	e3550000 	cmp	r5, #0	; 0x0
51404f48:	da00000d 	ble	51404f84 <__oldboot_ram_start+0x4f84>
